TN:
SF:/home/xxaqurm/proga/ProgrammingCourse/LaboratoryWork/Semester_3/Laboratory_3/C++/include/ds/AVLTree.hpp
FN:107,110,_ZN7AVLTreeIiE8minValueEPNS0_4NodeE
FN:113,135,_ZN7AVLTreeIiE6insertEPNS0_4NodeERKi
FN:138,178,_ZN7AVLTreeIiE6removeEPNS0_4NodeERKi
FN:181,186,_ZN7AVLTreeIiE4findEPNS0_4NodeERKi
FN:189,191,_ZN7AVLTreeIiE6insertERKi
FN:194,196,_ZN7AVLTreeIiE6removeERKi
FN:199,201,_ZN7AVLTreeIiE8containsERKi
FN:236,239,_ZNK7AVLTreeIiE5countEPNS0_4NodeE
FN:242,244,_ZNK7AVLTreeIiE4sizeEv
FN:56,56,_ZN7AVLTreeIiE4NodeC2ERKi
FN:59,59,_ZN7AVLTreeIiEC2Ev
FN:62,64,_ZN7AVLTreeIiED2Ev
FN:67,72,_ZN7AVLTreeIiE7destroyEPNS0_4NodeE
FN:75,77,_ZN7AVLTreeIiE6heightEPNS0_4NodeE
FN:80,82,_ZN7AVLTreeIiE7balanceEPNS0_4NodeE
FN:85,93,_ZN7AVLTreeIiE11rotateRightEPNS0_4NodeE
FN:96,104,_ZN7AVLTreeIiE10rotateLeftEPNS0_4NodeE
FNDA:4,_ZN7AVLTreeIiE8minValueEPNS0_4NodeE
FNDA:86,_ZN7AVLTreeIiE6insertEPNS0_4NodeERKi
FNDA:14,_ZN7AVLTreeIiE6removeEPNS0_4NodeERKi
FNDA:84,_ZN7AVLTreeIiE4findEPNS0_4NodeERKi
FNDA:44,_ZN7AVLTreeIiE6insertERKi
FNDA:6,_ZN7AVLTreeIiE6removeERKi
FNDA:46,_ZN7AVLTreeIiE8containsERKi
FNDA:92,_ZNK7AVLTreeIiE5countEPNS0_4NodeE
FNDA:16,_ZNK7AVLTreeIiE4sizeEv
FNDA:44,_ZN7AVLTreeIiE4NodeC2ERKi
FNDA:16,_ZN7AVLTreeIiEC2Ev
FNDA:16,_ZN7AVLTreeIiED2Ev
FNDA:92,_ZN7AVLTreeIiE7destroyEPNS0_4NodeE
FNDA:240,_ZN7AVLTreeIiE6heightEPNS0_4NodeE
FNDA:50,_ZN7AVLTreeIiE7balanceEPNS0_4NodeE
FNDA:6,_ZN7AVLTreeIiE11rotateRightEPNS0_4NodeE
FNDA:4,_ZN7AVLTreeIiE10rotateLeftEPNS0_4NodeE
FNF:17
FNH:17
DA:56,44
DA:59,16
DA:62,16
DA:63,16
DA:64,16
DA:67,92
DA:68,92
DA:69,38
DA:70,38
DA:71,38
DA:75,240
DA:76,240
DA:80,50
DA:81,50
DA:85,6
DA:86,6
DA:87,6
DA:88,6
DA:89,6
DA:90,6
DA:91,6
DA:92,6
DA:96,4
DA:97,4
DA:98,4
DA:99,4
DA:100,4
DA:101,4
DA:102,4
DA:103,4
DA:107,4
DA:108,6
DA:109,4
DA:113,86
DA:114,86
DA:116,42
DA:117,18
DA:118,0
DA:120,42
DA:121,42
DA:123,42
DA:124,40
DA:125,40
DA:126,2
DA:127,2
DA:129,38
DA:130,2
DA:131,2
DA:134,36
DA:138,14
DA:139,14
DA:141,14
DA:142,10
DA:144,10
DA:145,6
DA:146,6
DA:147,6
DA:148,6
DA:150,0
DA:151,0
DA:152,0
DA:154,0
DA:155,4
DA:156,4
DA:157,4
DA:161,8
DA:163,8
DA:164,8
DA:166,8
DA:167,8
DA:168,0
DA:169,0
DA:171,8
DA:172,8
DA:173,0
DA:174,0
DA:177,8
DA:181,84
DA:182,84
DA:183,76
DA:184,38
DA:185,18
DA:189,44
DA:190,44
DA:191,44
DA:194,6
DA:195,6
DA:196,6
DA:199,46
DA:200,46
DA:236,92
DA:237,92
DA:238,38
DA:242,16
DA:243,16
LF:95
LH:86
end_of_record
TN:
SF:/home/xxaqurm/proga/ProgrammingCourse/LaboratoryWork/Semester_3/Laboratory_3/C++/include/ds/Array.hpp
FN:102,109,_ZN5ArrayIiE13resizeToRightEv
FN:112,125,_ZN5ArrayIiE12resizeToLeftEv
FN:128,131,_ZN5ArrayIiE9push_backERKi
FN:134,138,_ZN5ArrayIiE8pop_backEv
FN:141,147,_ZN5ArrayIiE6insertEiRKi
FN:150,155,_ZN5ArrayIiE5eraseEi
FN:176,179,_ZNK5ArrayIiE2atEi
FN:182,189,_ZNK5ArrayIiE4findERKi
FN:192,201,_ZN5ArrayIiE6removeERKi
FN:204,206,_ZNK5ArrayIN16DoubleHashingSetINSt7__cxx1112basic_stringIcSt11char_traitsIcESaIcEEEE4SlotEEixEi
FN:204,206,_ZNK5ArrayIN16DoubleHashingSetIiE4SlotEEixEi
FN:204,206,_ZNK5ArrayIiEixEi
FN:209,218,_ZN5ArrayIN16DoubleHashingSetINSt7__cxx1112basic_stringIcSt11char_traitsIcESaIcEEEE4SlotEEaSERKS9_
FN:209,218,_ZN5ArrayIN16DoubleHashingSetIiE4SlotEEaSERKS3_
FN:209,218,_ZN5ArrayIiEaSERKS0_
FN:51,51,_ZN5ArrayIiEC2Ev
FN:54,59,_ZN5ArrayIN16DoubleHashingSetINSt7__cxx1112basic_stringIcSt11char_traitsIcESaIcEEEE4SlotEEC2Ei
FN:54,59,_ZN5ArrayIN16DoubleHashingSetIiE4SlotEEC2Ei
FN:54,59,_ZN5ArrayIiEC2Ei
FN:62,68,_ZN5ArrayIiEC2EiRKi
FN:71,73,_ZN5ArrayIN16DoubleHashingSetINSt7__cxx1112basic_stringIcSt11char_traitsIcESaIcEEEE4SlotEEC2ERKS9_
FN:71,73,_ZN5ArrayIN16DoubleHashingSetIiE4SlotEEC2ERKS3_
FN:71,73,_ZN5ArrayIiEC2ERKS0_
FN:76,79,_ZN5ArrayIiEC2ESt16initializer_listIiE
FN:82,84,_ZN5ArrayIN16DoubleHashingSetINSt7__cxx1112basic_stringIcSt11char_traitsIcESaIcEEEE4SlotEED2Ev
FN:82,84,_ZN5ArrayIN16DoubleHashingSetIiE4SlotEED2Ev
FN:82,84,_ZN5ArrayIiED2Ev
FN:87,87,_ZNK5ArrayIN16DoubleHashingSetINSt7__cxx1112basic_stringIcSt11char_traitsIcESaIcEEEE4SlotEE4sizeEv
FN:87,87,_ZNK5ArrayIN16DoubleHashingSetIiE4SlotEE4sizeEv
FN:87,87,_ZNK5ArrayIiE4sizeEv
FN:90,90,_ZNK5ArrayIiE8capacityEv
FN:93,93,_ZNK5ArrayIiE5emptyEv
FN:96,96,_ZNK5ArrayIiE5frontEv
FN:99,99,_ZNK5ArrayIiE4backEv
FNDA:6,_ZN5ArrayIiE13resizeToRightEv
FNDA:2,_ZN5ArrayIiE12resizeToLeftEv
FNDA:44,_ZN5ArrayIiE9push_backERKi
FNDA:24,_ZN5ArrayIiE8pop_backEv
FNDA:4,_ZN5ArrayIiE6insertEiRKi
FNDA:6,_ZN5ArrayIiE5eraseEi
FNDA:4,_ZNK5ArrayIiE2atEi
FNDA:8,_ZNK5ArrayIiE4findERKi
FNDA:4,_ZN5ArrayIiE6removeERKi
FNDA:76,_ZNK5ArrayIN16DoubleHashingSetINSt7__cxx1112basic_stringIcSt11char_traitsIcESaIcEEEE4SlotEEixEi
FNDA:262,_ZNK5ArrayIN16DoubleHashingSetIiE4SlotEEixEi
FNDA:32,_ZNK5ArrayIiEixEi
FNDA:0,_ZN5ArrayIN16DoubleHashingSetINSt7__cxx1112basic_stringIcSt11char_traitsIcESaIcEEEE4SlotEEaSERKS9_
FNDA:2,_ZN5ArrayIN16DoubleHashingSetIiE4SlotEEaSERKS3_
FNDA:2,_ZN5ArrayIiEaSERKS0_
FNDA:8,_ZN5ArrayIiEC2Ev
FNDA:4,_ZN5ArrayIN16DoubleHashingSetINSt7__cxx1112basic_stringIcSt11char_traitsIcESaIcEEEE4SlotEEC2Ei
FNDA:14,_ZN5ArrayIN16DoubleHashingSetIiE4SlotEEC2Ei
FNDA:2,_ZN5ArrayIiEC2Ei
FNDA:2,_ZN5ArrayIiEC2EiRKi
FNDA:0,_ZN5ArrayIN16DoubleHashingSetINSt7__cxx1112basic_stringIcSt11char_traitsIcESaIcEEEE4SlotEEC2ERKS9_
FNDA:2,_ZN5ArrayIN16DoubleHashingSetIiE4SlotEEC2ERKS3_
FNDA:2,_ZN5ArrayIiEC2ERKS0_
FNDA:20,_ZN5ArrayIiEC2ESt16initializer_listIiE
FNDA:4,_ZN5ArrayIN16DoubleHashingSetINSt7__cxx1112basic_stringIcSt11char_traitsIcESaIcEEEE4SlotEED2Ev
FNDA:16,_ZN5ArrayIN16DoubleHashingSetIiE4SlotEED2Ev
FNDA:34,_ZN5ArrayIiED2Ev
FNDA:0,_ZNK5ArrayIN16DoubleHashingSetINSt7__cxx1112basic_stringIcSt11char_traitsIcESaIcEEEE4SlotEE4sizeEv
FNDA:2,_ZNK5ArrayIN16DoubleHashingSetIiE4SlotEE4sizeEv
FNDA:26,_ZNK5ArrayIiE4sizeEv
FNDA:12,_ZNK5ArrayIiE8capacityEv
FNDA:2,_ZNK5ArrayIiE5emptyEv
FNDA:2,_ZNK5ArrayIiE5frontEv
FNDA:6,_ZNK5ArrayIiE4backEv
FNF:34
FNH:31
DA:51,8
DA:54,20
DA:55,20
DA:56,20
DA:57,20
DA:58,170
DA:59,20
DA:62,2
DA:63,2
DA:64,2
DA:65,2
DA:66,2
DA:67,12
DA:68,2
DA:71,10
DA:72,10
DA:73,4
DA:76,20
DA:77,20
DA:78,82
DA:79,20
DA:82,54
DA:83,98
DA:84,54
DA:87,28
DA:90,12
DA:93,2
DA:96,2
DA:99,6
DA:102,6
DA:103,6
DA:104,6
DA:105,72
DA:106,6
DA:107,6
DA:108,6
DA:109,6
DA:112,2
DA:113,2
DA:114,2
DA:115,2
DA:117,2
DA:119,2
DA:120,22
DA:122,2
DA:123,2
DA:124,2
DA:128,44
DA:129,44
DA:130,44
DA:131,44
DA:134,24
DA:135,24
DA:136,24
DA:137,24
DA:138,24
DA:141,4
DA:142,4
DA:143,2
DA:144,6
DA:145,2
DA:146,2
DA:147,2
DA:150,6
DA:151,6
DA:152,10
DA:153,4
DA:154,4
DA:155,4
DA:176,4
DA:177,4
DA:178,2
DA:182,8
DA:183,22
DA:184,18
DA:185,4
DA:188,4
DA:192,4
DA:193,4
DA:195,4
DA:196,2
DA:199,2
DA:200,2
DA:204,370
DA:205,370
DA:209,4
DA:210,4
DA:211,4
DA:212,4
DA:213,4
DA:214,18
DA:215,10
DA:217,4
LF:93
LH:93
end_of_record
TN:
SF:/home/xxaqurm/proga/ProgrammingCourse/LaboratoryWork/Semester_3/Laboratory_3/C++/include/ds/ForwardList.hpp
FN:116,130,_ZN11ForwardListIiE12insert_afterEiRKi
FN:133,138,_ZN11ForwardListIiE9pop_frontEv
FN:141,157,_ZN11ForwardListIiE8pop_backEv
FN:15,15,_ZN11ForwardListIiE4NodeC2ERKi
FN:160,179,_ZN11ForwardListIiE13remove_beforeEi
FN:182,204,_ZN11ForwardListIiE6removeERKi
FN:207,221,_ZN11ForwardListIiE12remove_afterEi
FN:224,227,_ZN11ForwardListIiE5frontEv
FN:230,233,_ZNK11ForwardListIiE5frontEv
FN:236,242,_ZN11ForwardListIiE4backEv
FN:245,251,_ZNK11ForwardListIiE4backEv
FN:280,288,_ZNK11ForwardListIiE4sizeEv
FN:291,297,_ZN11ForwardListIiE5clearEv
FN:300,312,_ZNK11ForwardListIiE4findERKi
FN:315,327,_ZNK11ForwardListIiE2atEi
FN:55,55,_ZN11ForwardListIiEC2Ev
FN:58,62,_ZN11ForwardListIiEC2ESt16initializer_listIiE
FN:65,67,_ZN11ForwardListIiED2Ev
FN:70,72,_ZNK11ForwardListIiE5emptyEv
FN:75,79,_ZN11ForwardListIiE10push_frontERKi
FN:82,92,_ZN11ForwardListIiE9push_backERKi
FN:95,113,_ZN11ForwardListIiE13insert_beforeEiRKi
FNDA:6,_ZN11ForwardListIiE12insert_afterEiRKi
FNDA:6,_ZN11ForwardListIiE9pop_frontEv
FNDA:6,_ZN11ForwardListIiE8pop_backEv
FNDA:148,_ZN11ForwardListIiE4NodeC2ERKi
FNDA:6,_ZN11ForwardListIiE13remove_beforeEi
FNDA:4,_ZN11ForwardListIiE6removeERKi
FNDA:6,_ZN11ForwardListIiE12remove_afterEi
FNDA:16,_ZN11ForwardListIiE5frontEv
FNDA:2,_ZNK11ForwardListIiE5frontEv
FNDA:12,_ZN11ForwardListIiE4backEv
FNDA:2,_ZNK11ForwardListIiE4backEv
FNDA:22,_ZNK11ForwardListIiE4sizeEv
FNDA:60,_ZN11ForwardListIiE5clearEv
FNDA:4,_ZNK11ForwardListIiE4findERKi
FNDA:16,_ZNK11ForwardListIiE2atEi
FNDA:14,_ZN11ForwardListIiEC2Ev
FNDA:44,_ZN11ForwardListIiEC2ESt16initializer_listIiE
FNDA:58,_ZN11ForwardListIiED2Ev
FNDA:52,_ZNK11ForwardListIiE5emptyEv
FNDA:6,_ZN11ForwardListIiE10push_frontERKi
FNDA:138,_ZN11ForwardListIiE9push_backERKi
FNDA:8,_ZN11ForwardListIiE13insert_beforeEiRKi
FNF:22
FNH:22
DA:15,148
DA:55,14
DA:58,44
DA:59,178
DA:60,134
DA:62,44
DA:65,58
DA:66,58
DA:67,58
DA:70,52
DA:71,52
DA:75,6
DA:76,6
DA:77,6
DA:78,6
DA:79,6
DA:82,138
DA:83,138
DA:84,138
DA:85,46
DA:86,46
DA:89,92
DA:90,148
DA:91,92
DA:95,8
DA:96,8
DA:97,6
DA:98,2
DA:99,2
DA:102,4
DA:103,10
DA:104,8
DA:105,6
DA:108,2
DA:110,2
DA:111,2
DA:112,2
DA:116,6
DA:117,6
DA:119,4
DA:120,12
DA:121,10
DA:122,8
DA:125,2
DA:127,2
DA:128,2
DA:129,2
DA:130,2
DA:133,6
DA:134,6
DA:135,4
DA:136,4
DA:137,4
DA:138,4
DA:141,6
DA:142,6
DA:144,4
DA:145,2
DA:146,2
DA:147,2
DA:150,2
DA:151,4
DA:152,2
DA:155,2
DA:156,2
DA:160,6
DA:161,6
DA:163,4
DA:164,2
DA:165,2
DA:168,2
DA:169,2
DA:170,0
DA:171,0
DA:174,2
DA:176,2
DA:177,2
DA:178,2
DA:182,4
DA:183,4
DA:185,4
DA:186,2
DA:187,2
DA:188,2
DA:189,2
DA:192,2
DA:193,2
DA:195,2
DA:196,2
DA:197,2
DA:198,2
DA:199,2
DA:201,0
DA:202,0
DA:207,6
DA:208,6
DA:210,4
DA:211,12
DA:212,10
DA:213,8
DA:216,2
DA:218,2
DA:219,2
DA:220,2
DA:221,2
DA:224,16
DA:225,16
DA:226,12
DA:230,2
DA:231,2
DA:232,2
DA:236,12
DA:237,12
DA:239,8
DA:240,20
DA:241,8
DA:245,2
DA:246,2
DA:248,2
DA:249,6
DA:250,2
DA:280,22
DA:281,22
DA:282,22
DA:283,74
DA:284,52
DA:285,52
DA:287,22
DA:291,60
DA:292,252
DA:293,132
DA:294,132
DA:295,132
DA:297,60
DA:300,4
DA:301,4
DA:302,4
DA:304,12
DA:305,10
DA:306,2
DA:307,8
DA:308,8
DA:311,2
DA:315,16
DA:316,16
DA:318,14
DA:319,36
DA:320,24
DA:321,22
DA:324,12
DA:326,12
LF:151
LH:147
end_of_record
TN:
SF:/home/xxaqurm/proga/ProgrammingCourse/LaboratoryWork/Semester_3/Laboratory_3/C++/include/ds/LinkedList.hpp
FN:120,137,_ZN10LinkedListIiE12insert_afterEiRKi
FN:140,147,_ZN10LinkedListIiE9pop_frontEv
FN:150,157,_ZN10LinkedListIiE8pop_backEv
FN:160,173,_ZN10LinkedListIiE13remove_beforeEi
FN:176,201,_ZN10LinkedListIiE6removeERi
FN:204,216,_ZN10LinkedListIiE12remove_afterEi
FN:219,222,_ZN10LinkedListIiE5frontEv
FN:231,234,_ZN10LinkedListIiE4backEv
FN:267,275,_ZNK10LinkedListIiE4sizeEv
FN:278,285,_ZN10LinkedListIiE5clearEv
FN:288,301,_ZNK10LinkedListIiE2atEi
FN:304,317,_ZNK10LinkedListIiE4findERKi
FN:58,58,_ZN10LinkedListIiE4NodeC2ERKi
FN:61,61,_ZN10LinkedListIiEC2Ev
FN:64,68,_ZN10LinkedListIiEC2ESt16initializer_listIiE
FN:71,73,_ZN10LinkedListIiED2Ev
FN:76,78,_ZNK10LinkedListIiE5emptyEv
FN:81,87,_ZN10LinkedListIiE10push_frontERKi
FN:90,96,_ZN10LinkedListIiE9push_backERKi
FN:99,117,_ZN10LinkedListIiE13insert_beforeEiRKi
FNDA:4,_ZN10LinkedListIiE12insert_afterEiRKi
FNDA:6,_ZN10LinkedListIiE9pop_frontEv
FNDA:4,_ZN10LinkedListIiE8pop_backEv
FNDA:4,_ZN10LinkedListIiE13remove_beforeEi
FNDA:4,_ZN10LinkedListIiE6removeERi
FNDA:4,_ZN10LinkedListIiE12remove_afterEi
FNDA:16,_ZN10LinkedListIiE5frontEv
FNDA:10,_ZN10LinkedListIiE4backEv
FNDA:28,_ZNK10LinkedListIiE4sizeEv
FNDA:54,_ZN10LinkedListIiE5clearEv
FNDA:12,_ZNK10LinkedListIiE2atEi
FNDA:8,_ZNK10LinkedListIiE4findERKi
FNDA:116,_ZN10LinkedListIiE4NodeC2ERKi
FNDA:14,_ZN10LinkedListIiEC2Ev
FNDA:38,_ZN10LinkedListIiEC2ESt16initializer_listIiE
FNDA:52,_ZN10LinkedListIiED2Ev
FNDA:42,_ZNK10LinkedListIiE5emptyEv
FNDA:6,_ZN10LinkedListIiE10push_frontERKi
FNDA:106,_ZN10LinkedListIiE9push_backERKi
FNDA:6,_ZN10LinkedListIiE13insert_beforeEiRKi
FNF:20
FNH:20
DA:58,116
DA:61,14
DA:64,38
DA:65,134
DA:66,96
DA:68,38
DA:71,52
DA:72,52
DA:73,52
DA:76,42
DA:77,42
DA:81,6
DA:82,6
DA:83,6
DA:84,6
DA:85,6
DA:86,6
DA:87,6
DA:90,106
DA:91,106
DA:92,106
DA:93,106
DA:94,106
DA:95,106
DA:96,106
DA:99,6
DA:100,6
DA:101,6
DA:102,2
DA:103,2
DA:106,4
DA:107,10
DA:108,8
DA:109,6
DA:112,2
DA:113,2
DA:114,2
DA:115,2
DA:116,2
DA:120,4
DA:121,4
DA:123,4
DA:124,8
DA:125,6
DA:126,4
DA:129,2
DA:131,2
DA:132,2
DA:133,2
DA:134,2
DA:135,2
DA:136,2
DA:137,2
DA:140,6
DA:141,6
DA:142,4
DA:143,4
DA:144,4
DA:145,0
DA:146,4
DA:147,4
DA:150,4
DA:151,4
DA:152,2
DA:153,2
DA:154,2
DA:155,0
DA:156,2
DA:157,2
DA:160,4
DA:161,4
DA:162,2
DA:163,6
DA:164,4
DA:165,4
DA:167,2
DA:168,2
DA:169,2
DA:170,2
DA:171,2
DA:172,2
DA:173,2
DA:176,4
DA:177,4
DA:179,4
DA:180,2
DA:181,2
DA:184,2
DA:186,2
DA:187,2
DA:188,2
DA:189,2
DA:191,2
DA:192,2
DA:194,2
DA:196,2
DA:197,2
DA:199,0
DA:204,4
DA:205,4
DA:206,4
DA:207,0
DA:208,0
DA:210,4
DA:211,2
DA:212,2
DA:213,2
DA:214,2
DA:215,2
DA:216,2
DA:219,16
DA:220,16
DA:221,14
DA:231,10
DA:232,10
DA:233,10
DA:267,28
DA:268,28
DA:269,28
DA:270,88
DA:271,60
DA:272,60
DA:274,28
DA:278,54
DA:279,212
DA:280,104
DA:281,104
DA:282,104
DA:284,54
DA:285,54
DA:288,12
DA:289,12
DA:291,12
DA:292,12
DA:294,28
DA:295,26
DA:296,16
DA:297,16
DA:300,2
DA:304,8
DA:305,8
DA:306,8
DA:308,24
DA:309,20
DA:310,4
DA:312,16
DA:313,16
DA:316,4
LF:148
LH:143
end_of_record
TN:
SF:/home/xxaqurm/proga/ProgrammingCourse/LaboratoryWork/Semester_3/Laboratory_3/C++/include/ds/Queue.hpp
FN:111,114,_ZN5QueueIiE4backEv
FN:123,125,_ZNK5QueueIiE5emptyEv
FN:128,130,_ZNK5QueueIiE4sizeEv
FN:13,13,_ZN5QueueIiE4NodeC2ERKi
FN:133,141,_ZN5QueueIiE5clearEv
FN:34,36,_ZN5QueueIiE9push_backERKi
FN:38,40,_ZN5QueueIiE6removeERKi
FN:48,50,_ZNK5QueueIiE2atEi
FN:53,53,_ZN5QueueIiEC2Ev
FN:56,58,_ZN5QueueIiED2Ev
FN:61,74,_ZNK5QueueIiE4findERKi
FN:77,86,_ZN5QueueIiE7enqueueERKi
FN:89,96,_ZN5QueueIiE7dequeueEv
FN:99,102,_ZN5QueueIiE5frontEv
FNDA:10,_ZN5QueueIiE4backEv
FNDA:44,_ZNK5QueueIiE5emptyEv
FNDA:18,_ZNK5QueueIiE4sizeEv
FNDA:40,_ZN5QueueIiE4NodeC2ERKi
FNDA:28,_ZN5QueueIiE5clearEv
FNDA:4,_ZN5QueueIiE9push_backERKi
FNDA:2,_ZN5QueueIiE6removeERKi
FNDA:2,_ZNK5QueueIiE2atEi
FNDA:26,_ZN5QueueIiEC2Ev
FNDA:26,_ZN5QueueIiED2Ev
FNDA:6,_ZNK5QueueIiE4findERKi
FNDA:40,_ZN5QueueIiE7enqueueERKi
FNDA:10,_ZN5QueueIiE7dequeueEv
FNDA:14,_ZN5QueueIiE5frontEv
FNF:14
FNH:14
DA:13,40
DA:34,4
DA:35,4
DA:36,4
DA:38,2
DA:39,2
DA:40,2
DA:48,2
DA:49,2
DA:53,26
DA:56,26
DA:57,26
DA:58,26
DA:61,6
DA:62,6
DA:63,6
DA:65,18
DA:66,16
DA:67,4
DA:69,12
DA:70,12
DA:73,2
DA:77,40
DA:78,40
DA:79,40
DA:80,20
DA:82,20
DA:83,20
DA:85,40
DA:86,40
DA:89,10
DA:90,10
DA:91,8
DA:92,8
DA:93,8
DA:94,8
DA:95,8
DA:96,8
DA:99,14
DA:100,14
DA:101,10
DA:111,10
DA:112,10
DA:113,6
DA:123,44
DA:124,44
DA:128,18
DA:129,18
DA:133,28
DA:134,88
DA:135,32
DA:136,32
DA:137,32
DA:139,28
DA:140,28
DA:141,28
LF:56
LH:56
end_of_record
TN:
SF:/home/xxaqurm/proga/ProgrammingCourse/LaboratoryWork/Semester_3/Laboratory_3/C++/include/ds/Stack.hpp
FN:103,106,_ZN5StackIiE3topEv
FN:115,117,_ZNK5StackIiE5emptyEv
FN:120,122,_ZNK5StackIiE4sizeEv
FN:125,132,_ZN5StackIiE5clearEv
FN:13,13,_ZN5StackIiE4NodeC2ERKi
FN:31,33,_ZN5StackIiE9push_backERKi
FN:35,37,_ZN5StackIiE6removeERKi
FN:45,59,_ZNK5StackIiE2atEi
FN:62,75,_ZNK5StackIiE4findERKi
FN:78,78,_ZN5StackIiEC2Ev
FN:81,83,_ZN5StackIiED2Ev
FN:86,91,_ZN5StackIiE4pushERKi
FN:94,100,_ZN5StackIiE3popEv
FNDA:422,_ZN5StackIiE3topEv
FNDA:658,_ZNK5StackIiE5emptyEv
FNDA:22,_ZNK5StackIiE4sizeEv
FNDA:26,_ZN5StackIiE5clearEv
FNDA:230,_ZN5StackIiE4NodeC2ERKi
FNDA:2,_ZN5StackIiE9push_backERKi
FNDA:2,_ZN5StackIiE6removeERKi
FNDA:2,_ZNK5StackIiE2atEi
FNDA:2,_ZNK5StackIiE4findERKi
FNDA:22,_ZN5StackIiEC2Ev
FNDA:22,_ZN5StackIiED2Ev
FNDA:230,_ZN5StackIiE4pushERKi
FNDA:220,_ZN5StackIiE3popEv
FNF:13
FNH:13
DA:13,230
DA:31,2
DA:32,2
DA:33,2
DA:35,2
DA:36,2
DA:37,2
DA:45,2
DA:46,2
DA:47,0
DA:49,2
DA:50,2
DA:51,2
DA:52,2
DA:53,2
DA:54,0
DA:55,0
DA:58,0
DA:62,2
DA:63,2
DA:64,2
DA:66,2
DA:67,2
DA:68,2
DA:70,0
DA:71,0
DA:74,0
DA:78,22
DA:81,22
DA:82,22
DA:83,22
DA:86,230
DA:87,230
DA:88,230
DA:89,230
DA:90,230
DA:91,230
DA:94,220
DA:95,220
DA:96,216
DA:97,216
DA:98,216
DA:99,216
DA:100,216
DA:103,422
DA:104,422
DA:105,418
DA:115,658
DA:116,658
DA:120,22
DA:121,22
DA:125,26
DA:126,66
DA:127,14
DA:128,14
DA:129,14
DA:131,26
DA:132,26
LF:58
LH:51
end_of_record
TN:
SF:/home/xxaqurm/proga/ProgrammingCourse/LaboratoryWork/Semester_3/Laboratory_3/C++/include/hash/DoubleHashingHashTable.hpp
FN:121,132,_ZNK16DoubleHashingSetINSt7__cxx1112basic_stringIcSt11char_traitsIcESaIcEEEE8containsERKS5_
FN:121,132,_ZNK16DoubleHashingSetIiE8containsERKi
FN:135,150,_ZN16DoubleHashingSetINSt7__cxx1112basic_stringIcSt11char_traitsIcESaIcEEEE6removeERKS5_
FN:135,150,_ZN16DoubleHashingSetIiE6removeERKi
FN:168,170,_ZNK16DoubleHashingSetIiE4sizeEv
FN:173,175,_ZNK16DoubleHashingSetIiE11getCapacityEv
FN:44,44,_ZN16DoubleHashingSetINSt7__cxx1112basic_stringIcSt11char_traitsIcESaIcEEEEC2Em
FN:44,44,_ZN16DoubleHashingSetIiEC2Em
FN:47,60,_ZNK16DoubleHashingSetINSt7__cxx1112basic_stringIcSt11char_traitsIcESaIcEEEE5hash1ERKS5_
FN:47,60,_ZNK16DoubleHashingSetIiE5hash1ERKi
FN:63,75,_ZNK16DoubleHashingSetINSt7__cxx1112basic_stringIcSt11char_traitsIcESaIcEEEE5hash2ERKS5_
FN:63,75,_ZNK16DoubleHashingSetIiE5hash2ERKi
FN:78,80,_ZNK16DoubleHashingSetINSt7__cxx1112basic_stringIcSt11char_traitsIcESaIcEEEE5probeERKS5_m
FN:78,80,_ZNK16DoubleHashingSetIiE5probeERKim
FN:83,94,_ZN16DoubleHashingSetINSt7__cxx1112basic_stringIcSt11char_traitsIcESaIcEEEE6resizeEm
FN:83,94,_ZN16DoubleHashingSetIiE6resizeEm
FN:97,118,_ZN16DoubleHashingSetINSt7__cxx1112basic_stringIcSt11char_traitsIcESaIcEEEE6insertERKS5_
FN:97,118,_ZN16DoubleHashingSetIiE6insertERKi
FNDA:12,_ZNK16DoubleHashingSetINSt7__cxx1112basic_stringIcSt11char_traitsIcESaIcEEEE8containsERKS5_
FNDA:26,_ZNK16DoubleHashingSetIiE8containsERKi
FNDA:2,_ZN16DoubleHashingSetINSt7__cxx1112basic_stringIcSt11char_traitsIcESaIcEEEE6removeERKS5_
FNDA:6,_ZN16DoubleHashingSetIiE6removeERKi
FNDA:2,_ZNK16DoubleHashingSetIiE4sizeEv
FNDA:2,_ZNK16DoubleHashingSetIiE11getCapacityEv
FNDA:4,_ZN16DoubleHashingSetINSt7__cxx1112basic_stringIcSt11char_traitsIcESaIcEEEEC2Em
FNDA:12,_ZN16DoubleHashingSetIiEC2Em
FNDA:28,_ZNK16DoubleHashingSetINSt7__cxx1112basic_stringIcSt11char_traitsIcESaIcEEEE5hash1ERKS5_
FNDA:92,_ZNK16DoubleHashingSetIiE5hash1ERKi
FNDA:28,_ZNK16DoubleHashingSetINSt7__cxx1112basic_stringIcSt11char_traitsIcESaIcEEEE5hash2ERKS5_
FNDA:92,_ZNK16DoubleHashingSetIiE5hash2ERKi
FNDA:28,_ZNK16DoubleHashingSetINSt7__cxx1112basic_stringIcSt11char_traitsIcESaIcEEEE5probeERKS5_m
FNDA:92,_ZNK16DoubleHashingSetIiE5probeERKim
FNDA:0,_ZN16DoubleHashingSetINSt7__cxx1112basic_stringIcSt11char_traitsIcESaIcEEEE6resizeEm
FNDA:2,_ZN16DoubleHashingSetIiE6resizeEm
FNDA:10,_ZN16DoubleHashingSetINSt7__cxx1112basic_stringIcSt11char_traitsIcESaIcEEEE6insertERKS5_
FNDA:36,_ZN16DoubleHashingSetIiE6insertERKi
FNF:18
FNH:17
DA:44,16
DA:47,120
DA:48,120
DA:50,92
DA:51,92
DA:53,28
DA:54,122
DA:55,94
DA:57,28
DA:59,120
DA:63,120
DA:64,120
DA:66,92
DA:67,92
DA:69,28
DA:70,122
DA:71,94
DA:74,120
DA:78,120
DA:79,120
DA:83,2
DA:84,2
DA:85,2
DA:86,2
DA:87,2
DA:89,2
DA:90,0
DA:91,0
DA:94,2
DA:97,46
DA:98,46
DA:99,2
DA:102,46
DA:105,56
DA:106,56
DA:107,44
DA:108,44
DA:109,44
DA:110,44
DA:111,12
DA:112,2
DA:114,10
DA:115,10
DA:117,0
DA:121,38
DA:122,38
DA:125,56
DA:126,56
DA:127,46
DA:128,18
DA:129,18
DA:131,0
DA:135,8
DA:136,8
DA:139,8
DA:140,8
DA:141,6
DA:142,6
DA:143,6
DA:144,6
DA:146,0
DA:147,0
DA:149,0
DA:168,2
DA:169,2
DA:173,2
DA:174,2
LF:67
LH:60
end_of_record
TN:
SF:/home/xxaqurm/proga/ProgrammingCourse/LaboratoryWork/Semester_3/Laboratory_3/C++/include/hash/LinearProbingHashTable.hpp
FN:101,116,_ZN20LinearProbingHashMapIiiE6removeERKi
FN:119,132,_ZNK20LinearProbingHashMapIiiE8containsERKi
FN:135,137,_ZNK20LinearProbingHashMapIiiE4sizeEv
FN:140,142,_ZNK20LinearProbingHashMapIiiE7isEmptyEv
FN:20,20,_ZN20LinearProbingHashMapIiiE8HashNodeC2Ev
FN:21,21,_ZN20LinearProbingHashMapIiiE8HashNodeC2ERKiS3_
FN:45,63,_ZNK20LinearProbingHashMapIiiE3getERKi
FN:66,68,_ZN20LinearProbingHashMapIiiEC2Em
FN:71,73,_ZN20LinearProbingHashMapIiiED2Ev
FN:76,78,_ZNK20LinearProbingHashMapIiiE8hashCodeERKi
FN:81,98,_ZN20LinearProbingHashMapIiiE6insertERKiS2_
FNDA:8,_ZN20LinearProbingHashMapIiiE6removeERKi
FNDA:14,_ZNK20LinearProbingHashMapIiiE8containsERKi
FNDA:16,_ZNK20LinearProbingHashMapIiiE4sizeEv
FNDA:8,_ZNK20LinearProbingHashMapIiiE7isEmptyEv
FNDA:376,_ZN20LinearProbingHashMapIiiE8HashNodeC2Ev
FNDA:32,_ZN20LinearProbingHashMapIiiE8HashNodeC2ERKiS3_
FNDA:16,_ZNK20LinearProbingHashMapIiiE3getERKi
FNDA:22,_ZN20LinearProbingHashMapIiiEC2Em
FNDA:22,_ZN20LinearProbingHashMapIiiED2Ev
FNDA:74,_ZNK20LinearProbingHashMapIiiE8hashCodeERKi
FNDA:36,_ZN20LinearProbingHashMapIiiE6insertERKiS2_
FNF:11
FNH:11
DA:20,376
DA:21,32
DA:45,16
DA:46,16
DA:47,16
DA:50,18
DA:51,14
DA:54,4
DA:55,2
DA:58,2
DA:60,2
DA:62,0
DA:66,22
DA:67,398
DA:68,22
DA:71,22
DA:72,22
DA:73,22
DA:76,74
DA:77,74
DA:81,36
DA:82,36
DA:83,36
DA:86,42
DA:87,32
DA:88,32
DA:89,32
DA:90,10
DA:91,2
DA:92,2
DA:94,8
DA:95,8
DA:97,2
DA:101,8
DA:102,8
DA:103,8
DA:106,8
DA:107,6
DA:108,6
DA:109,6
DA:111,2
DA:112,0
DA:113,0
DA:115,0
DA:119,14
DA:120,14
DA:121,14
DA:124,20
DA:125,8
DA:127,12
DA:128,6
DA:129,6
DA:131,0
DA:135,16
DA:136,16
DA:140,8
DA:141,8
LF:57
LH:52
end_of_record
TN:
SF:/home/xxaqurm/proga/ProgrammingCourse/LaboratoryWork/Semester_3/Laboratory_3/C++/include/hash/SeparateChainingHashTable.hpp
FN:109,128,_ZN23SeparateChainingHashMapIiNSt7__cxx1112basic_stringIcSt11char_traitsIcESaIcEEEE6rehashEv
FN:109,128,_ZN23SeparateChainingHashMapIiiE6rehashEv
FN:131,151,_ZN23SeparateChainingHashMapIiNSt7__cxx1112basic_stringIcSt11char_traitsIcESaIcEEEE3putERKiRKS5_
FN:131,151,_ZN23SeparateChainingHashMapIiiE3putERKiS2_
FN:15,15,_ZN23SeparateChainingHashMapIiNSt7__cxx1112basic_stringIcSt11char_traitsIcESaIcEEEE4NodeC2ERKiRKS5_
FN:15,15,_ZN23SeparateChainingHashMapIiiE4NodeC2ERKiS3_
FN:154,172,_ZN23SeparateChainingHashMapIiNSt7__cxx1112basic_stringIcSt11char_traitsIcESaIcEEEE6removeERKi
FN:175,185,_ZNK23SeparateChainingHashMapIiiE5itemsEv
FN:188,200,_ZN23SeparateChainingHashMapIiNSt7__cxx1112basic_stringIcSt11char_traitsIcESaIcEEEE3getERKi
FN:188,200,_ZN23SeparateChainingHashMapIiiE3getERKi
FN:218,220,_ZNK23SeparateChainingHashMapIiNSt7__cxx1112basic_stringIcSt11char_traitsIcESaIcEEEE5emptyEv
FN:218,220,_ZNK23SeparateChainingHashMapIiiE5emptyEv
FN:223,242,_ZN23SeparateChainingHashMapIiNSt7__cxx1112basic_stringIcSt11char_traitsIcESaIcEEEEaSERKS6_
FN:28,29,_ZN23SeparateChainingHashMapIiNSt7__cxx1112basic_stringIcSt11char_traitsIcESaIcEEEEC2Em
FN:28,29,_ZN23SeparateChainingHashMapIiiEC2Em
FN:49,59,_ZNK23SeparateChainingHashMapIiNSt7__cxx1112basic_stringIcSt11char_traitsIcESaIcEEEE8containsERKi
FN:62,73,_ZN23SeparateChainingHashMapIiNSt7__cxx1112basic_stringIcSt11char_traitsIcESaIcEEEEC2ERKS6_
FN:76,78,_ZN23SeparateChainingHashMapIiNSt7__cxx1112basic_stringIcSt11char_traitsIcESaIcEEEED2Ev
FN:76,78,_ZN23SeparateChainingHashMapIiiED2Ev
FN:81,91,_ZN23SeparateChainingHashMapIiNSt7__cxx1112basic_stringIcSt11char_traitsIcESaIcEEEE5clearEv
FN:81,91,_ZN23SeparateChainingHashMapIiiE5clearEv
FN:94,106,_ZNK23SeparateChainingHashMapIiNSt7__cxx1112basic_stringIcSt11char_traitsIcESaIcEEEE4hashERKi
FN:94,106,_ZNK23SeparateChainingHashMapIiiE4hashERKi
FNDA:0,_ZN23SeparateChainingHashMapIiNSt7__cxx1112basic_stringIcSt11char_traitsIcESaIcEEEE6rehashEv
FNDA:2,_ZN23SeparateChainingHashMapIiiE6rehashEv
FNDA:26,_ZN23SeparateChainingHashMapIiNSt7__cxx1112basic_stringIcSt11char_traitsIcESaIcEEEE3putERKiRKS5_
FNDA:16,_ZN23SeparateChainingHashMapIiiE3putERKiS2_
FNDA:26,_ZN23SeparateChainingHashMapIiNSt7__cxx1112basic_stringIcSt11char_traitsIcESaIcEEEE4NodeC2ERKiRKS5_
FNDA:16,_ZN23SeparateChainingHashMapIiiE4NodeC2ERKiS3_
FNDA:2,_ZN23SeparateChainingHashMapIiNSt7__cxx1112basic_stringIcSt11char_traitsIcESaIcEEEE6removeERKi
FNDA:2,_ZNK23SeparateChainingHashMapIiiE5itemsEv
FNDA:16,_ZN23SeparateChainingHashMapIiNSt7__cxx1112basic_stringIcSt11char_traitsIcESaIcEEEE3getERKi
FNDA:8,_ZN23SeparateChainingHashMapIiiE3getERKi
FNDA:4,_ZNK23SeparateChainingHashMapIiNSt7__cxx1112basic_stringIcSt11char_traitsIcESaIcEEEE5emptyEv
FNDA:2,_ZNK23SeparateChainingHashMapIiiE5emptyEv
FNDA:2,_ZN23SeparateChainingHashMapIiNSt7__cxx1112basic_stringIcSt11char_traitsIcESaIcEEEEaSERKS6_
FNDA:16,_ZN23SeparateChainingHashMapIiNSt7__cxx1112basic_stringIcSt11char_traitsIcESaIcEEEEC2Em
FNDA:8,_ZN23SeparateChainingHashMapIiiEC2Em
FNDA:8,_ZNK23SeparateChainingHashMapIiNSt7__cxx1112basic_stringIcSt11char_traitsIcESaIcEEEE8containsERKi
FNDA:2,_ZN23SeparateChainingHashMapIiNSt7__cxx1112basic_stringIcSt11char_traitsIcESaIcEEEEC2ERKS6_
FNDA:18,_ZN23SeparateChainingHashMapIiNSt7__cxx1112basic_stringIcSt11char_traitsIcESaIcEEEED2Ev
FNDA:8,_ZN23SeparateChainingHashMapIiiED2Ev
FNDA:20,_ZN23SeparateChainingHashMapIiNSt7__cxx1112basic_stringIcSt11char_traitsIcESaIcEEEE5clearEv
FNDA:10,_ZN23SeparateChainingHashMapIiiE5clearEv
FNDA:52,_ZNK23SeparateChainingHashMapIiNSt7__cxx1112basic_stringIcSt11char_traitsIcESaIcEEEE4hashERKi
FNDA:28,_ZNK23SeparateChainingHashMapIiiE4hashERKi
FNF:23
FNH:22
DA:15,42
DA:28,24
DA:29,48
DA:49,8
DA:50,8
DA:51,8
DA:52,8
DA:53,4
DA:54,4
DA:56,0
DA:58,4
DA:62,2
DA:63,4
DA:64,24
DA:65,22
DA:66,22
DA:67,26
DA:68,4
DA:69,4
DA:70,4
DA:73,2
DA:76,26
DA:77,26
DA:78,26
DA:81,30
DA:82,352
DA:83,362
DA:84,40
DA:85,40
DA:86,40
DA:89,30
DA:90,30
DA:91,30
DA:94,80
DA:96,80
DA:109,2
DA:110,2
DA:111,2
DA:113,2
DA:115,8
DA:116,6
DA:117,10
DA:118,4
DA:119,4
DA:121,4
DA:122,4
DA:123,4
DA:127,2
DA:128,2
DA:131,42
DA:132,42
DA:133,2
DA:136,42
DA:137,42
DA:138,42
DA:139,6
DA:140,6
DA:141,6
DA:144,0
DA:147,36
DA:148,36
DA:149,36
DA:150,36
DA:154,2
DA:155,2
DA:156,2
DA:157,2
DA:158,2
DA:159,2
DA:160,2
DA:161,0
DA:163,2
DA:165,2
DA:166,2
DA:167,2
DA:169,0
DA:170,0
DA:175,2
DA:176,2
DA:177,24
DA:178,22
DA:179,26
DA:180,4
DA:181,4
DA:184,2
DA:185,0
DA:188,24
DA:189,24
DA:191,24
DA:192,24
DA:193,22
DA:194,22
DA:196,0
DA:199,2
DA:218,6
DA:219,6
DA:223,2
DA:224,2
DA:225,0
DA:227,2
DA:228,2
DA:229,2
DA:230,2
DA:232,24
DA:233,22
DA:234,22
DA:235,24
DA:236,2
DA:237,2
DA:238,2
DA:241,2
LF:111
LH:103
end_of_record
TN:
SF:/home/xxaqurm/proga/ProgrammingCourse/LaboratoryWork/Semester_3/Laboratory_3/C++/tests/array_test.cpp
FN:101,105,_ZN23ArrayTest_FindTest_Test8TestBodyEv
FN:101,105,_ZN23ArrayTest_FindTest_TestC2Ev
FN:101,105,_ZN23ArrayTest_FindTest_TestD0Ev
FN:101,105,_ZN23ArrayTest_FindTest_TestD2Ev
FN:107,112,_ZN25ArrayTest_RemoveTest_Test8TestBodyEv
FN:107,112,_ZN25ArrayTest_RemoveTest_TestC2Ev
FN:107,112,_ZN25ArrayTest_RemoveTest_TestD0Ev
FN:107,112,_ZN25ArrayTest_RemoveTest_TestD2Ev
FN:11,11,_ZN38ArrayTest_ConstructorWithCapacity_Test8TestBodyEv
FN:11,11,_ZN38ArrayTest_ConstructorWithCapacity_TestC2Ev
FN:11,11,_ZN38ArrayTest_ConstructorWithCapacity_TestD0Ev
FN:11,11,_ZN38ArrayTest_ConstructorWithCapacity_TestD2Ev
FN:114,114,_ZN33ArrayTest_AssignmentOperator_Test8TestBodyEv
FN:114,114,_ZN33ArrayTest_AssignmentOperator_TestC2Ev
FN:114,114,_ZN33ArrayTest_AssignmentOperator_TestD0Ev
FN:114,114,_ZN33ArrayTest_AssignmentOperator_TestD2Ev
FN:17,17,_ZN42ArrayTest_ConstructorWithSizeAndValue_Test8TestBodyEv
FN:17,17,_ZN42ArrayTest_ConstructorWithSizeAndValue_TestC2Ev
FN:17,17,_ZN42ArrayTest_ConstructorWithSizeAndValue_TestD0Ev
FN:17,17,_ZN42ArrayTest_ConstructorWithSizeAndValue_TestD2Ev
FN:23,23,_ZN41ArrayTest_InitializerListConstructor_Test8TestBodyEv
FN:23,23,_ZN41ArrayTest_InitializerListConstructor_TestC2Ev
FN:23,23,_ZN41ArrayTest_InitializerListConstructor_TestD0Ev
FN:23,23,_ZN41ArrayTest_InitializerListConstructor_TestD2Ev
FN:31,31,_ZN30ArrayTest_CopyConstructor_Test8TestBodyEv
FN:31,31,_ZN30ArrayTest_CopyConstructor_TestC2Ev
FN:31,31,_ZN30ArrayTest_CopyConstructor_TestD0Ev
FN:31,31,_ZN30ArrayTest_CopyConstructor_TestD2Ev
FN:4,4,_ZN33ArrayTest_DefaultConstructor_Test8TestBodyEv
FN:4,4,_ZN33ArrayTest_DefaultConstructor_TestC2Ev
FN:4,4,_ZN33ArrayTest_DefaultConstructor_TestD0Ev
FN:4,4,_ZN33ArrayTest_DefaultConstructor_TestD2Ev
FN:42,42,_ZN24ArrayTest_FrontBack_Test8TestBodyEv
FN:42,42,_ZN24ArrayTest_FrontBack_TestC2Ev
FN:42,42,_ZN24ArrayTest_FrontBack_TestD0Ev
FN:42,42,_ZN24ArrayTest_FrontBack_TestD2Ev
FN:48,48,_ZN23ArrayTest_AtMethod_Test8TestBodyEv
FN:48,48,_ZN23ArrayTest_AtMethod_TestC2Ev
FN:48,48,_ZN23ArrayTest_AtMethod_TestD0Ev
FN:48,48,_ZN23ArrayTest_AtMethod_TestD2Ev
FN:54,54,_ZN23ArrayTest_PushBack_Test8TestBodyEv
FN:54,54,_ZN23ArrayTest_PushBack_TestC2Ev
FN:54,54,_ZN23ArrayTest_PushBack_TestD0Ev
FN:54,54,_ZN23ArrayTest_PushBack_TestD2Ev
FN:61,61,_ZN22ArrayTest_PopBack_Test8TestBodyEv
FN:61,61,_ZN22ArrayTest_PopBack_TestC2Ev
FN:61,61,_ZN22ArrayTest_PopBack_TestD0Ev
FN:61,61,_ZN22ArrayTest_PopBack_TestD2Ev
FN:68,68,_ZN27ArrayTest_ResizeToLeft_Test8TestBodyEv
FN:68,68,_ZN27ArrayTest_ResizeToLeft_TestC2Ev
FN:68,68,_ZN27ArrayTest_ResizeToLeft_TestD0Ev
FN:68,68,_ZN27ArrayTest_ResizeToLeft_TestD2Ev
FN:82,89,_ZN25ArrayTest_InsertTest_Test8TestBodyEv
FN:82,89,_ZN25ArrayTest_InsertTest_TestC2Ev
FN:82,89,_ZN25ArrayTest_InsertTest_TestD0Ev
FN:82,89,_ZN25ArrayTest_InsertTest_TestD2Ev
FN:91,99,_ZN24ArrayTest_EraseTest_Test8TestBodyEv
FN:91,99,_ZN24ArrayTest_EraseTest_TestC2Ev
FN:91,99,_ZN24ArrayTest_EraseTest_TestD0Ev
FN:91,99,_ZN24ArrayTest_EraseTest_TestD2Ev
FNDA:2,_ZN23ArrayTest_FindTest_Test8TestBodyEv
FNDA:2,_ZN23ArrayTest_FindTest_TestC2Ev
FNDA:2,_ZN23ArrayTest_FindTest_TestD0Ev
FNDA:2,_ZN23ArrayTest_FindTest_TestD2Ev
FNDA:2,_ZN25ArrayTest_RemoveTest_Test8TestBodyEv
FNDA:2,_ZN25ArrayTest_RemoveTest_TestC2Ev
FNDA:2,_ZN25ArrayTest_RemoveTest_TestD0Ev
FNDA:2,_ZN25ArrayTest_RemoveTest_TestD2Ev
FNDA:2,_ZN38ArrayTest_ConstructorWithCapacity_Test8TestBodyEv
FNDA:2,_ZN38ArrayTest_ConstructorWithCapacity_TestC2Ev
FNDA:2,_ZN38ArrayTest_ConstructorWithCapacity_TestD0Ev
FNDA:2,_ZN38ArrayTest_ConstructorWithCapacity_TestD2Ev
FNDA:2,_ZN33ArrayTest_AssignmentOperator_Test8TestBodyEv
FNDA:2,_ZN33ArrayTest_AssignmentOperator_TestC2Ev
FNDA:2,_ZN33ArrayTest_AssignmentOperator_TestD0Ev
FNDA:2,_ZN33ArrayTest_AssignmentOperator_TestD2Ev
FNDA:2,_ZN42ArrayTest_ConstructorWithSizeAndValue_Test8TestBodyEv
FNDA:2,_ZN42ArrayTest_ConstructorWithSizeAndValue_TestC2Ev
FNDA:2,_ZN42ArrayTest_ConstructorWithSizeAndValue_TestD0Ev
FNDA:2,_ZN42ArrayTest_ConstructorWithSizeAndValue_TestD2Ev
FNDA:2,_ZN41ArrayTest_InitializerListConstructor_Test8TestBodyEv
FNDA:2,_ZN41ArrayTest_InitializerListConstructor_TestC2Ev
FNDA:2,_ZN41ArrayTest_InitializerListConstructor_TestD0Ev
FNDA:2,_ZN41ArrayTest_InitializerListConstructor_TestD2Ev
FNDA:2,_ZN30ArrayTest_CopyConstructor_Test8TestBodyEv
FNDA:2,_ZN30ArrayTest_CopyConstructor_TestC2Ev
FNDA:2,_ZN30ArrayTest_CopyConstructor_TestD0Ev
FNDA:2,_ZN30ArrayTest_CopyConstructor_TestD2Ev
FNDA:2,_ZN33ArrayTest_DefaultConstructor_Test8TestBodyEv
FNDA:2,_ZN33ArrayTest_DefaultConstructor_TestC2Ev
FNDA:2,_ZN33ArrayTest_DefaultConstructor_TestD0Ev
FNDA:2,_ZN33ArrayTest_DefaultConstructor_TestD2Ev
FNDA:2,_ZN24ArrayTest_FrontBack_Test8TestBodyEv
FNDA:2,_ZN24ArrayTest_FrontBack_TestC2Ev
FNDA:2,_ZN24ArrayTest_FrontBack_TestD0Ev
FNDA:2,_ZN24ArrayTest_FrontBack_TestD2Ev
FNDA:2,_ZN23ArrayTest_AtMethod_Test8TestBodyEv
FNDA:2,_ZN23ArrayTest_AtMethod_TestC2Ev
FNDA:2,_ZN23ArrayTest_AtMethod_TestD0Ev
FNDA:2,_ZN23ArrayTest_AtMethod_TestD2Ev
FNDA:2,_ZN23ArrayTest_PushBack_Test8TestBodyEv
FNDA:2,_ZN23ArrayTest_PushBack_TestC2Ev
FNDA:2,_ZN23ArrayTest_PushBack_TestD0Ev
FNDA:2,_ZN23ArrayTest_PushBack_TestD2Ev
FNDA:2,_ZN22ArrayTest_PopBack_Test8TestBodyEv
FNDA:2,_ZN22ArrayTest_PopBack_TestC2Ev
FNDA:2,_ZN22ArrayTest_PopBack_TestD0Ev
FNDA:2,_ZN22ArrayTest_PopBack_TestD2Ev
FNDA:2,_ZN27ArrayTest_ResizeToLeft_Test8TestBodyEv
FNDA:2,_ZN27ArrayTest_ResizeToLeft_TestC2Ev
FNDA:2,_ZN27ArrayTest_ResizeToLeft_TestD0Ev
FNDA:2,_ZN27ArrayTest_ResizeToLeft_TestD2Ev
FNDA:2,_ZN25ArrayTest_InsertTest_Test8TestBodyEv
FNDA:2,_ZN25ArrayTest_InsertTest_TestC2Ev
FNDA:2,_ZN25ArrayTest_InsertTest_TestD0Ev
FNDA:2,_ZN25ArrayTest_InsertTest_TestD2Ev
FNDA:2,_ZN24ArrayTest_EraseTest_Test8TestBodyEv
FNDA:2,_ZN24ArrayTest_EraseTest_TestC2Ev
FNDA:2,_ZN24ArrayTest_EraseTest_TestD0Ev
FNDA:2,_ZN24ArrayTest_EraseTest_TestD2Ev
FNF:60
FNH:60
DA:4,8
DA:5,2
DA:6,2
DA:7,2
DA:8,2
DA:9,2
DA:11,8
DA:12,2
DA:13,2
DA:14,2
DA:15,2
DA:17,8
DA:18,2
DA:19,2
DA:20,12
DA:21,2
DA:23,8
DA:24,2
DA:25,2
DA:26,2
DA:27,2
DA:28,2
DA:29,2
DA:31,8
DA:32,2
DA:33,2
DA:35,2
DA:36,2
DA:38,2
DA:39,2
DA:40,2
DA:42,8
DA:43,2
DA:44,2
DA:45,2
DA:46,2
DA:48,8
DA:49,2
DA:50,2
DA:51,2
DA:52,2
DA:54,8
DA:55,2
DA:56,2
DA:57,2
DA:58,2
DA:59,2
DA:61,8
DA:62,2
DA:63,2
DA:64,2
DA:65,2
DA:66,2
DA:68,8
DA:69,2
DA:71,44
DA:72,2
DA:73,2
DA:74,2
DA:75,24
DA:77,2
DA:78,2
DA:79,2
DA:80,2
DA:82,8
DA:83,2
DA:84,2
DA:86,2
DA:87,2
DA:88,2
DA:89,2
DA:91,8
DA:92,2
DA:93,2
DA:95,2
DA:96,2
DA:98,2
DA:99,2
DA:101,8
DA:102,2
DA:103,2
DA:104,2
DA:105,2
DA:107,8
DA:108,2
DA:109,2
DA:110,2
DA:111,2
DA:112,2
DA:114,8
DA:115,2
DA:116,2
DA:117,2
DA:119,2
DA:120,2
DA:122,2
DA:123,2
DA:124,2
LF:98
LH:98
end_of_record
TN:
SF:/home/xxaqurm/proga/ProgrammingCourse/LaboratoryWork/Semester_3/Laboratory_3/C++/tests/avl_tree_test.cpp
FN:12,12,_ZN47AVLTreeTest_InsertMultipleElementsBalanced_Test8TestBodyEv
FN:12,12,_ZN47AVLTreeTest_InsertMultipleElementsBalanced_TestC2Ev
FN:12,12,_ZN47AVLTreeTest_InsertMultipleElementsBalanced_TestD0Ev
FN:12,12,_ZN47AVLTreeTest_InsertMultipleElementsBalanced_TestD2Ev
FN:26,26,_ZN36AVLTreeTest_ContainsOnEmptyTree_Test8TestBodyEv
FN:26,26,_ZN36AVLTreeTest_ContainsOnEmptyTree_TestC2Ev
FN:26,26,_ZN36AVLTreeTest_ContainsOnEmptyTree_TestD0Ev
FN:26,26,_ZN36AVLTreeTest_ContainsOnEmptyTree_TestD2Ev
FN:33,45,_ZN31AVLTreeTest_RemoveLeafNode_Test8TestBodyEv
FN:33,45,_ZN31AVLTreeTest_RemoveLeafNode_TestC2Ev
FN:33,45,_ZN31AVLTreeTest_RemoveLeafNode_TestD0Ev
FN:33,45,_ZN31AVLTreeTest_RemoveLeafNode_TestD2Ev
FN:4,4,_ZN36AVLTreeTest_InsertSingleElement_Test8TestBodyEv
FN:4,4,_ZN36AVLTreeTest_InsertSingleElement_TestC2Ev
FN:4,4,_ZN36AVLTreeTest_InsertSingleElement_TestD0Ev
FN:4,4,_ZN36AVLTreeTest_InsertSingleElement_TestD2Ev
FN:47,47,_ZN39AVLTreeTest_RemoveNodeWithOneChild_Test8TestBodyEv
FN:47,47,_ZN39AVLTreeTest_RemoveNodeWithOneChild_TestC2Ev
FN:47,47,_ZN39AVLTreeTest_RemoveNodeWithOneChild_TestD0Ev
FN:47,47,_ZN39AVLTreeTest_RemoveNodeWithOneChild_TestD2Ev
FN:61,61,_ZN42AVLTreeTest_RemoveNodeWithTwoChildren_Test8TestBodyEv
FN:61,61,_ZN42AVLTreeTest_RemoveNodeWithTwoChildren_TestC2Ev
FN:61,61,_ZN42AVLTreeTest_RemoveNodeWithTwoChildren_TestD0Ev
FN:61,61,_ZN42AVLTreeTest_RemoveNodeWithTwoChildren_TestD2Ev
FN:79,79,_ZN39AVLTreeTest_RebalanceLeftRightCase_Test8TestBodyEv
FN:79,79,_ZN39AVLTreeTest_RebalanceLeftRightCase_TestC2Ev
FN:79,79,_ZN39AVLTreeTest_RebalanceLeftRightCase_TestD0Ev
FN:79,79,_ZN39AVLTreeTest_RebalanceLeftRightCase_TestD2Ev
FN:91,101,_ZN39AVLTreeTest_RebalanceRightLeftCase_Test8TestBodyEv
FN:91,101,_ZN39AVLTreeTest_RebalanceRightLeftCase_TestC2Ev
FN:91,101,_ZN39AVLTreeTest_RebalanceRightLeftCase_TestD0Ev
FN:91,101,_ZN39AVLTreeTest_RebalanceRightLeftCase_TestD2Ev
FNDA:2,_ZN47AVLTreeTest_InsertMultipleElementsBalanced_Test8TestBodyEv
FNDA:2,_ZN47AVLTreeTest_InsertMultipleElementsBalanced_TestC2Ev
FNDA:2,_ZN47AVLTreeTest_InsertMultipleElementsBalanced_TestD0Ev
FNDA:2,_ZN47AVLTreeTest_InsertMultipleElementsBalanced_TestD2Ev
FNDA:2,_ZN36AVLTreeTest_ContainsOnEmptyTree_Test8TestBodyEv
FNDA:2,_ZN36AVLTreeTest_ContainsOnEmptyTree_TestC2Ev
FNDA:2,_ZN36AVLTreeTest_ContainsOnEmptyTree_TestD0Ev
FNDA:2,_ZN36AVLTreeTest_ContainsOnEmptyTree_TestD2Ev
FNDA:2,_ZN31AVLTreeTest_RemoveLeafNode_Test8TestBodyEv
FNDA:2,_ZN31AVLTreeTest_RemoveLeafNode_TestC2Ev
FNDA:2,_ZN31AVLTreeTest_RemoveLeafNode_TestD0Ev
FNDA:2,_ZN31AVLTreeTest_RemoveLeafNode_TestD2Ev
FNDA:2,_ZN36AVLTreeTest_InsertSingleElement_Test8TestBodyEv
FNDA:2,_ZN36AVLTreeTest_InsertSingleElement_TestC2Ev
FNDA:2,_ZN36AVLTreeTest_InsertSingleElement_TestD0Ev
FNDA:2,_ZN36AVLTreeTest_InsertSingleElement_TestD2Ev
FNDA:2,_ZN39AVLTreeTest_RemoveNodeWithOneChild_Test8TestBodyEv
FNDA:2,_ZN39AVLTreeTest_RemoveNodeWithOneChild_TestC2Ev
FNDA:2,_ZN39AVLTreeTest_RemoveNodeWithOneChild_TestD0Ev
FNDA:2,_ZN39AVLTreeTest_RemoveNodeWithOneChild_TestD2Ev
FNDA:2,_ZN42AVLTreeTest_RemoveNodeWithTwoChildren_Test8TestBodyEv
FNDA:2,_ZN42AVLTreeTest_RemoveNodeWithTwoChildren_TestC2Ev
FNDA:2,_ZN42AVLTreeTest_RemoveNodeWithTwoChildren_TestD0Ev
FNDA:2,_ZN42AVLTreeTest_RemoveNodeWithTwoChildren_TestD2Ev
FNDA:2,_ZN39AVLTreeTest_RebalanceLeftRightCase_Test8TestBodyEv
FNDA:2,_ZN39AVLTreeTest_RebalanceLeftRightCase_TestC2Ev
FNDA:2,_ZN39AVLTreeTest_RebalanceLeftRightCase_TestD0Ev
FNDA:2,_ZN39AVLTreeTest_RebalanceLeftRightCase_TestD2Ev
FNDA:2,_ZN39AVLTreeTest_RebalanceRightLeftCase_Test8TestBodyEv
FNDA:2,_ZN39AVLTreeTest_RebalanceRightLeftCase_TestC2Ev
FNDA:2,_ZN39AVLTreeTest_RebalanceRightLeftCase_TestD0Ev
FNDA:2,_ZN39AVLTreeTest_RebalanceRightLeftCase_TestD2Ev
FNF:32
FNH:32
DA:4,8
DA:5,2
DA:6,2
DA:8,2
DA:9,2
DA:10,2
DA:12,8
DA:13,2
DA:14,2
DA:15,2
DA:16,2
DA:17,2
DA:19,2
DA:20,2
DA:21,2
DA:22,2
DA:23,2
DA:24,2
DA:26,8
DA:27,2
DA:29,2
DA:30,2
DA:31,2
DA:33,8
DA:34,2
DA:35,2
DA:36,2
DA:37,2
DA:39,2
DA:41,2
DA:42,2
DA:43,2
DA:44,2
DA:45,2
DA:47,8
DA:48,2
DA:49,2
DA:50,2
DA:51,2
DA:53,2
DA:55,2
DA:56,2
DA:57,2
DA:58,2
DA:59,2
DA:61,8
DA:62,2
DA:63,2
DA:64,2
DA:65,2
DA:66,2
DA:67,2
DA:69,2
DA:71,2
DA:72,2
DA:73,2
DA:74,2
DA:75,2
DA:76,2
DA:77,2
DA:79,8
DA:80,2
DA:81,2
DA:82,2
DA:83,2
DA:85,2
DA:86,2
DA:87,2
DA:88,2
DA:89,2
DA:91,8
DA:92,2
DA:93,2
DA:94,2
DA:95,2
DA:97,2
DA:98,2
DA:99,2
DA:100,2
DA:101,2
LF:80
LH:80
end_of_record
TN:
SF:/home/xxaqurm/proga/ProgrammingCourse/LaboratoryWork/Semester_3/Laboratory_3/C++/tests/double_hashing_set_test.cpp
FN:17,17,_ZN44DoubleHashingSetTest_InsertDuplicateInt_Test8TestBodyEv
FN:17,17,_ZN44DoubleHashingSetTest_InsertDuplicateInt_TestC2Ev
FN:17,17,_ZN44DoubleHashingSetTest_InsertDuplicateInt_TestD0Ev
FN:17,17,_ZN44DoubleHashingSetTest_InsertDuplicateInt_TestD2Ev
FN:27,27,_ZN35DoubleHashingSetTest_RemoveInt_Test8TestBodyEv
FN:27,27,_ZN35DoubleHashingSetTest_RemoveInt_TestC2Ev
FN:27,27,_ZN35DoubleHashingSetTest_RemoveInt_TestD0Ev
FN:27,27,_ZN35DoubleHashingSetTest_RemoveInt_TestD2Ev
FN:39,49,_ZN45DoubleHashingSetTest_HandleCollisionsInt_Test8TestBodyEv
FN:39,49,_ZN45DoubleHashingSetTest_HandleCollisionsInt_TestC2Ev
FN:39,49,_ZN45DoubleHashingSetTest_HandleCollisionsInt_TestD0Ev
FN:39,49,_ZN45DoubleHashingSetTest_HandleCollisionsInt_TestD2Ev
FN:4,4,_ZN46DoubleHashingSetTest_InsertAndContainsInt_Test8TestBodyEv
FN:4,4,_ZN46DoubleHashingSetTest_InsertAndContainsInt_TestC2Ev
FN:4,4,_ZN46DoubleHashingSetTest_InsertAndContainsInt_TestD0Ev
FN:4,4,_ZN46DoubleHashingSetTest_InsertAndContainsInt_TestD2Ev
FN:51,51,_ZN35DoubleHashingSetTest_ResizeInt_Test8TestBodyEv
FN:51,51,_ZN35DoubleHashingSetTest_ResizeInt_TestC2Ev
FN:51,51,_ZN35DoubleHashingSetTest_ResizeInt_TestD0Ev
FN:51,51,_ZN35DoubleHashingSetTest_ResizeInt_TestD2Ev
FN:63,63,_ZN47DoubleHashingSetTest_RemoveAndReuseSlotInt_Test8TestBodyEv
FN:63,63,_ZN47DoubleHashingSetTest_RemoveAndReuseSlotInt_TestC2Ev
FN:63,63,_ZN47DoubleHashingSetTest_RemoveAndReuseSlotInt_TestD0Ev
FN:63,63,_ZN47DoubleHashingSetTest_RemoveAndReuseSlotInt_TestD2Ev
FN:76,76,_ZN49DoubleHashingSetTest_InsertAndContainsString_Test8TestBodyEv
FN:76,76,_ZN49DoubleHashingSetTest_InsertAndContainsString_TestC2Ev
FN:76,76,_ZN49DoubleHashingSetTest_InsertAndContainsString_TestD0Ev
FN:76,76,_ZN49DoubleHashingSetTest_InsertAndContainsString_TestD2Ev
FN:89,98,_ZN38DoubleHashingSetTest_RemoveString_Test8TestBodyEv
FN:89,98,_ZN38DoubleHashingSetTest_RemoveString_TestC2Ev
FN:89,98,_ZN38DoubleHashingSetTest_RemoveString_TestD0Ev
FN:89,98,_ZN38DoubleHashingSetTest_RemoveString_TestD2Ev
FNDA:2,_ZN44DoubleHashingSetTest_InsertDuplicateInt_Test8TestBodyEv
FNDA:2,_ZN44DoubleHashingSetTest_InsertDuplicateInt_TestC2Ev
FNDA:2,_ZN44DoubleHashingSetTest_InsertDuplicateInt_TestD0Ev
FNDA:2,_ZN44DoubleHashingSetTest_InsertDuplicateInt_TestD2Ev
FNDA:2,_ZN35DoubleHashingSetTest_RemoveInt_Test8TestBodyEv
FNDA:2,_ZN35DoubleHashingSetTest_RemoveInt_TestC2Ev
FNDA:2,_ZN35DoubleHashingSetTest_RemoveInt_TestD0Ev
FNDA:2,_ZN35DoubleHashingSetTest_RemoveInt_TestD2Ev
FNDA:2,_ZN45DoubleHashingSetTest_HandleCollisionsInt_Test8TestBodyEv
FNDA:2,_ZN45DoubleHashingSetTest_HandleCollisionsInt_TestC2Ev
FNDA:2,_ZN45DoubleHashingSetTest_HandleCollisionsInt_TestD0Ev
FNDA:2,_ZN45DoubleHashingSetTest_HandleCollisionsInt_TestD2Ev
FNDA:2,_ZN46DoubleHashingSetTest_InsertAndContainsInt_Test8TestBodyEv
FNDA:2,_ZN46DoubleHashingSetTest_InsertAndContainsInt_TestC2Ev
FNDA:2,_ZN46DoubleHashingSetTest_InsertAndContainsInt_TestD0Ev
FNDA:2,_ZN46DoubleHashingSetTest_InsertAndContainsInt_TestD2Ev
FNDA:2,_ZN35DoubleHashingSetTest_ResizeInt_Test8TestBodyEv
FNDA:2,_ZN35DoubleHashingSetTest_ResizeInt_TestC2Ev
FNDA:2,_ZN35DoubleHashingSetTest_ResizeInt_TestD0Ev
FNDA:2,_ZN35DoubleHashingSetTest_ResizeInt_TestD2Ev
FNDA:2,_ZN47DoubleHashingSetTest_RemoveAndReuseSlotInt_Test8TestBodyEv
FNDA:2,_ZN47DoubleHashingSetTest_RemoveAndReuseSlotInt_TestC2Ev
FNDA:2,_ZN47DoubleHashingSetTest_RemoveAndReuseSlotInt_TestD0Ev
FNDA:2,_ZN47DoubleHashingSetTest_RemoveAndReuseSlotInt_TestD2Ev
FNDA:2,_ZN49DoubleHashingSetTest_InsertAndContainsString_Test8TestBodyEv
FNDA:2,_ZN49DoubleHashingSetTest_InsertAndContainsString_TestC2Ev
FNDA:2,_ZN49DoubleHashingSetTest_InsertAndContainsString_TestD0Ev
FNDA:2,_ZN49DoubleHashingSetTest_InsertAndContainsString_TestD2Ev
FNDA:2,_ZN38DoubleHashingSetTest_RemoveString_Test8TestBodyEv
FNDA:2,_ZN38DoubleHashingSetTest_RemoveString_TestC2Ev
FNDA:2,_ZN38DoubleHashingSetTest_RemoveString_TestD0Ev
FNDA:2,_ZN38DoubleHashingSetTest_RemoveString_TestD2Ev
FNF:32
FNH:32
DA:4,8
DA:5,2
DA:7,2
DA:8,2
DA:9,2
DA:11,2
DA:12,2
DA:13,2
DA:14,2
DA:15,2
DA:17,8
DA:18,2
DA:20,2
DA:21,2
DA:23,2
DA:24,2
DA:25,2
DA:27,8
DA:28,2
DA:30,2
DA:31,2
DA:33,2
DA:34,2
DA:35,2
DA:36,2
DA:37,2
DA:39,8
DA:40,2
DA:42,2
DA:43,2
DA:44,2
DA:46,2
DA:47,2
DA:48,2
DA:49,2
DA:51,8
DA:52,2
DA:54,2
DA:55,2
DA:56,2
DA:57,2
DA:58,2
DA:60,2
DA:61,2
DA:63,8
DA:64,2
DA:66,2
DA:67,2
DA:68,2
DA:69,2
DA:71,2
DA:72,2
DA:73,2
DA:74,2
DA:76,8
DA:77,2
DA:79,4
DA:80,4
DA:81,4
DA:83,4
DA:84,4
DA:85,4
DA:86,4
DA:87,2
DA:89,8
DA:90,2
DA:92,4
DA:93,4
DA:95,4
DA:96,4
DA:97,4
DA:98,2
LF:72
LH:72
end_of_record
TN:
SF:/home/xxaqurm/proga/ProgrammingCourse/LaboratoryWork/Semester_3/Laboratory_3/C++/tests/forward_list_test.cpp
FN:10,10,_ZN47ForwardListTest_InitializerListConstructor_Test8TestBodyEv
FN:10,10,_ZN47ForwardListTest_InitializerListConstructor_TestC2Ev
FN:10,10,_ZN47ForwardListTest_InitializerListConstructor_TestD0Ev
FN:10,10,_ZN47ForwardListTest_InitializerListConstructor_TestD2Ev
FN:100,104,_ZN41ForwardListTest_PopBackSingleElement_Test8TestBodyEv
FN:100,104,_ZN41ForwardListTest_PopBackSingleElement_TestC2Ev
FN:100,104,_ZN41ForwardListTest_PopBackSingleElement_TestD0Ev
FN:100,104,_ZN41ForwardListTest_PopBackSingleElement_TestD2Ev
FN:106,109,_ZN34ForwardListTest_PopBackThrows_Test8TestBodyEv
FN:106,109,_ZN34ForwardListTest_PopBackThrows_TestC2Ev
FN:106,109,_ZN34ForwardListTest_PopBackThrows_TestD0Ev
FN:106,109,_ZN34ForwardListTest_PopBackThrows_TestD2Ev
FN:111,115,_ZN33ForwardListTest_RemoveBefore_Test8TestBodyEv
FN:111,115,_ZN33ForwardListTest_RemoveBefore_TestC2Ev
FN:111,115,_ZN33ForwardListTest_RemoveBefore_TestD0Ev
FN:111,115,_ZN33ForwardListTest_RemoveBefore_TestD2Ev
FN:117,117,_ZN39ForwardListTest_RemoveBeforeThrows_Test8TestBodyEv
FN:117,117,_ZN39ForwardListTest_RemoveBeforeThrows_TestC2Ev
FN:117,117,_ZN39ForwardListTest_RemoveBeforeThrows_TestD0Ev
FN:117,117,_ZN39ForwardListTest_RemoveBeforeThrows_TestD2Ev
FN:123,123,_ZN32ForwardListTest_RemoveValue_Test8TestBodyEv
FN:123,123,_ZN32ForwardListTest_RemoveValue_TestC2Ev
FN:123,123,_ZN32ForwardListTest_RemoveValue_TestD0Ev
FN:123,123,_ZN32ForwardListTest_RemoveValue_TestD2Ev
FN:130,134,_ZN36ForwardListTest_RemoveValueHead_Test8TestBodyEv
FN:130,134,_ZN36ForwardListTest_RemoveValueHead_TestC2Ev
FN:130,134,_ZN36ForwardListTest_RemoveValueHead_TestD0Ev
FN:130,134,_ZN36ForwardListTest_RemoveValueHead_TestD2Ev
FN:136,140,_ZN32ForwardListTest_RemoveAfter_Test8TestBodyEv
FN:136,140,_ZN32ForwardListTest_RemoveAfter_TestC2Ev
FN:136,140,_ZN32ForwardListTest_RemoveAfter_TestD0Ev
FN:136,140,_ZN32ForwardListTest_RemoveAfter_TestD2Ev
FN:142,146,_ZN38ForwardListTest_RemoveAfterThrows_Test8TestBodyEv
FN:142,146,_ZN38ForwardListTest_RemoveAfterThrows_TestC2Ev
FN:142,146,_ZN38ForwardListTest_RemoveAfterThrows_TestD0Ev
FN:142,146,_ZN38ForwardListTest_RemoveAfterThrows_TestD2Ev
FN:148,148,_ZN37ForwardListTest_AtReturnsCorrect_Test8TestBodyEv
FN:148,148,_ZN37ForwardListTest_AtReturnsCorrect_TestC2Ev
FN:148,148,_ZN37ForwardListTest_AtReturnsCorrect_TestD0Ev
FN:148,148,_ZN37ForwardListTest_AtReturnsCorrect_TestD2Ev
FN:153,157,_ZN29ForwardListTest_AtThrows_Test8TestBodyEv
FN:153,157,_ZN29ForwardListTest_AtThrows_TestC2Ev
FN:153,157,_ZN29ForwardListTest_AtThrows_TestD0Ev
FN:153,157,_ZN29ForwardListTest_AtThrows_TestD2Ev
FN:159,159,_ZN29ForwardListTest_FindTest_Test8TestBodyEv
FN:159,159,_ZN29ForwardListTest_FindTest_TestC2Ev
FN:159,159,_ZN29ForwardListTest_FindTest_TestD0Ev
FN:159,159,_ZN29ForwardListTest_FindTest_TestD2Ev
FN:165,168,_ZN29ForwardListTest_SizeTest_Test8TestBodyEv
FN:165,168,_ZN29ForwardListTest_SizeTest_TestC2Ev
FN:165,168,_ZN29ForwardListTest_SizeTest_TestD0Ev
FN:165,168,_ZN29ForwardListTest_SizeTest_TestD2Ev
FN:17,17,_ZN30ForwardListTest_PushFront_Test8TestBodyEv
FN:17,17,_ZN30ForwardListTest_PushFront_TestC2Ev
FN:17,17,_ZN30ForwardListTest_PushFront_TestD0Ev
FN:17,17,_ZN30ForwardListTest_PushFront_TestD2Ev
FN:170,173,_ZN30ForwardListTest_EmptyTest_Test8TestBodyEv
FN:170,173,_ZN30ForwardListTest_EmptyTest_TestC2Ev
FN:170,173,_ZN30ForwardListTest_EmptyTest_TestD0Ev
FN:170,173,_ZN30ForwardListTest_EmptyTest_TestD2Ev
FN:175,182,_ZN30ForwardListTest_ClearTest_Test8TestBodyEv
FN:175,182,_ZN30ForwardListTest_ClearTest_TestC2Ev
FN:175,182,_ZN30ForwardListTest_ClearTest_TestD0Ev
FN:175,182,_ZN30ForwardListTest_ClearTest_TestD2Ev
FN:25,25,_ZN29ForwardListTest_PushBack_Test8TestBodyEv
FN:25,25,_ZN29ForwardListTest_PushBack_TestC2Ev
FN:25,25,_ZN29ForwardListTest_PushBack_TestD0Ev
FN:25,25,_ZN29ForwardListTest_PushBack_TestD2Ev
FN:33,41,_ZN30ForwardListTest_FrontBack_Test8TestBodyEv
FN:33,41,_ZN30ForwardListTest_FrontBack_TestC2Ev
FN:33,41,_ZN30ForwardListTest_FrontBack_TestD0Ev
FN:33,41,_ZN30ForwardListTest_FrontBack_TestD2Ev
FN:4,4,_ZN39ForwardListTest_DefaultConstructor_Test8TestBodyEv
FN:4,4,_ZN39ForwardListTest_DefaultConstructor_TestC2Ev
FN:4,4,_ZN39ForwardListTest_DefaultConstructor_TestD0Ev
FN:4,4,_ZN39ForwardListTest_DefaultConstructor_TestD2Ev
FN:43,43,_ZN43ForwardListTest_FrontBackThrowsOnEmpty_Test8TestBodyEv
FN:43,43,_ZN43ForwardListTest_FrontBackThrowsOnEmpty_TestC2Ev
FN:43,43,_ZN43ForwardListTest_FrontBackThrowsOnEmpty_TestD0Ev
FN:43,43,_ZN43ForwardListTest_FrontBackThrowsOnEmpty_TestD2Ev
FN:49,54,_ZN33ForwardListTest_InsertBefore_Test8TestBodyEv
FN:49,54,_ZN33ForwardListTest_InsertBefore_TestC2Ev
FN:49,54,_ZN33ForwardListTest_InsertBefore_TestD0Ev
FN:49,54,_ZN33ForwardListTest_InsertBefore_TestD2Ev
FN:56,56,_ZN42ForwardListTest_InsertBeforeIndexZero_Test8TestBodyEv
FN:56,56,_ZN42ForwardListTest_InsertBeforeIndexZero_TestC2Ev
FN:56,56,_ZN42ForwardListTest_InsertBeforeIndexZero_TestD0Ev
FN:56,56,_ZN42ForwardListTest_InsertBeforeIndexZero_TestD2Ev
FN:62,62,_ZN39ForwardListTest_InsertBeforeThrows_Test8TestBodyEv
FN:62,62,_ZN39ForwardListTest_InsertBeforeThrows_TestC2Ev
FN:62,62,_ZN39ForwardListTest_InsertBeforeThrows_TestD0Ev
FN:62,62,_ZN39ForwardListTest_InsertBeforeThrows_TestD2Ev
FN:68,68,_ZN32ForwardListTest_InsertAfter_Test8TestBodyEv
FN:68,68,_ZN32ForwardListTest_InsertAfter_TestC2Ev
FN:68,68,_ZN32ForwardListTest_InsertAfter_TestD0Ev
FN:68,68,_ZN32ForwardListTest_InsertAfter_TestD2Ev
FN:75,75,_ZN38ForwardListTest_InsertAfterThrows_Test8TestBodyEv
FN:75,75,_ZN38ForwardListTest_InsertAfterThrows_TestC2Ev
FN:75,75,_ZN38ForwardListTest_InsertAfterThrows_TestD0Ev
FN:75,75,_ZN38ForwardListTest_InsertAfterThrows_TestD2Ev
FN:81,81,_ZN29ForwardListTest_PopFront_Test8TestBodyEv
FN:81,81,_ZN29ForwardListTest_PopFront_TestC2Ev
FN:81,81,_ZN29ForwardListTest_PopFront_TestD0Ev
FN:81,81,_ZN29ForwardListTest_PopFront_TestD2Ev
FN:88,91,_ZN35ForwardListTest_PopFrontThrows_Test8TestBodyEv
FN:88,91,_ZN35ForwardListTest_PopFrontThrows_TestC2Ev
FN:88,91,_ZN35ForwardListTest_PopFrontThrows_TestD0Ev
FN:88,91,_ZN35ForwardListTest_PopFrontThrows_TestD2Ev
FN:93,98,_ZN28ForwardListTest_PopBack_Test8TestBodyEv
FN:93,98,_ZN28ForwardListTest_PopBack_TestC2Ev
FN:93,98,_ZN28ForwardListTest_PopBack_TestD0Ev
FN:93,98,_ZN28ForwardListTest_PopBack_TestD2Ev
FNDA:2,_ZN47ForwardListTest_InitializerListConstructor_Test8TestBodyEv
FNDA:2,_ZN47ForwardListTest_InitializerListConstructor_TestC2Ev
FNDA:2,_ZN47ForwardListTest_InitializerListConstructor_TestD0Ev
FNDA:2,_ZN47ForwardListTest_InitializerListConstructor_TestD2Ev
FNDA:2,_ZN41ForwardListTest_PopBackSingleElement_Test8TestBodyEv
FNDA:2,_ZN41ForwardListTest_PopBackSingleElement_TestC2Ev
FNDA:2,_ZN41ForwardListTest_PopBackSingleElement_TestD0Ev
FNDA:2,_ZN41ForwardListTest_PopBackSingleElement_TestD2Ev
FNDA:2,_ZN34ForwardListTest_PopBackThrows_Test8TestBodyEv
FNDA:2,_ZN34ForwardListTest_PopBackThrows_TestC2Ev
FNDA:2,_ZN34ForwardListTest_PopBackThrows_TestD0Ev
FNDA:2,_ZN34ForwardListTest_PopBackThrows_TestD2Ev
FNDA:2,_ZN33ForwardListTest_RemoveBefore_Test8TestBodyEv
FNDA:2,_ZN33ForwardListTest_RemoveBefore_TestC2Ev
FNDA:2,_ZN33ForwardListTest_RemoveBefore_TestD0Ev
FNDA:2,_ZN33ForwardListTest_RemoveBefore_TestD2Ev
FNDA:2,_ZN39ForwardListTest_RemoveBeforeThrows_Test8TestBodyEv
FNDA:2,_ZN39ForwardListTest_RemoveBeforeThrows_TestC2Ev
FNDA:2,_ZN39ForwardListTest_RemoveBeforeThrows_TestD0Ev
FNDA:2,_ZN39ForwardListTest_RemoveBeforeThrows_TestD2Ev
FNDA:2,_ZN32ForwardListTest_RemoveValue_Test8TestBodyEv
FNDA:2,_ZN32ForwardListTest_RemoveValue_TestC2Ev
FNDA:2,_ZN32ForwardListTest_RemoveValue_TestD0Ev
FNDA:2,_ZN32ForwardListTest_RemoveValue_TestD2Ev
FNDA:2,_ZN36ForwardListTest_RemoveValueHead_Test8TestBodyEv
FNDA:2,_ZN36ForwardListTest_RemoveValueHead_TestC2Ev
FNDA:2,_ZN36ForwardListTest_RemoveValueHead_TestD0Ev
FNDA:2,_ZN36ForwardListTest_RemoveValueHead_TestD2Ev
FNDA:2,_ZN32ForwardListTest_RemoveAfter_Test8TestBodyEv
FNDA:2,_ZN32ForwardListTest_RemoveAfter_TestC2Ev
FNDA:2,_ZN32ForwardListTest_RemoveAfter_TestD0Ev
FNDA:2,_ZN32ForwardListTest_RemoveAfter_TestD2Ev
FNDA:2,_ZN38ForwardListTest_RemoveAfterThrows_Test8TestBodyEv
FNDA:2,_ZN38ForwardListTest_RemoveAfterThrows_TestC2Ev
FNDA:2,_ZN38ForwardListTest_RemoveAfterThrows_TestD0Ev
FNDA:2,_ZN38ForwardListTest_RemoveAfterThrows_TestD2Ev
FNDA:2,_ZN37ForwardListTest_AtReturnsCorrect_Test8TestBodyEv
FNDA:2,_ZN37ForwardListTest_AtReturnsCorrect_TestC2Ev
FNDA:2,_ZN37ForwardListTest_AtReturnsCorrect_TestD0Ev
FNDA:2,_ZN37ForwardListTest_AtReturnsCorrect_TestD2Ev
FNDA:2,_ZN29ForwardListTest_AtThrows_Test8TestBodyEv
FNDA:2,_ZN29ForwardListTest_AtThrows_TestC2Ev
FNDA:2,_ZN29ForwardListTest_AtThrows_TestD0Ev
FNDA:2,_ZN29ForwardListTest_AtThrows_TestD2Ev
FNDA:2,_ZN29ForwardListTest_FindTest_Test8TestBodyEv
FNDA:2,_ZN29ForwardListTest_FindTest_TestC2Ev
FNDA:2,_ZN29ForwardListTest_FindTest_TestD0Ev
FNDA:2,_ZN29ForwardListTest_FindTest_TestD2Ev
FNDA:2,_ZN29ForwardListTest_SizeTest_Test8TestBodyEv
FNDA:2,_ZN29ForwardListTest_SizeTest_TestC2Ev
FNDA:2,_ZN29ForwardListTest_SizeTest_TestD0Ev
FNDA:2,_ZN29ForwardListTest_SizeTest_TestD2Ev
FNDA:2,_ZN30ForwardListTest_PushFront_Test8TestBodyEv
FNDA:2,_ZN30ForwardListTest_PushFront_TestC2Ev
FNDA:2,_ZN30ForwardListTest_PushFront_TestD0Ev
FNDA:2,_ZN30ForwardListTest_PushFront_TestD2Ev
FNDA:2,_ZN30ForwardListTest_EmptyTest_Test8TestBodyEv
FNDA:2,_ZN30ForwardListTest_EmptyTest_TestC2Ev
FNDA:2,_ZN30ForwardListTest_EmptyTest_TestD0Ev
FNDA:2,_ZN30ForwardListTest_EmptyTest_TestD2Ev
FNDA:2,_ZN30ForwardListTest_ClearTest_Test8TestBodyEv
FNDA:2,_ZN30ForwardListTest_ClearTest_TestC2Ev
FNDA:2,_ZN30ForwardListTest_ClearTest_TestD0Ev
FNDA:2,_ZN30ForwardListTest_ClearTest_TestD2Ev
FNDA:2,_ZN29ForwardListTest_PushBack_Test8TestBodyEv
FNDA:2,_ZN29ForwardListTest_PushBack_TestC2Ev
FNDA:2,_ZN29ForwardListTest_PushBack_TestD0Ev
FNDA:2,_ZN29ForwardListTest_PushBack_TestD2Ev
FNDA:2,_ZN30ForwardListTest_FrontBack_Test8TestBodyEv
FNDA:2,_ZN30ForwardListTest_FrontBack_TestC2Ev
FNDA:2,_ZN30ForwardListTest_FrontBack_TestD0Ev
FNDA:2,_ZN30ForwardListTest_FrontBack_TestD2Ev
FNDA:2,_ZN39ForwardListTest_DefaultConstructor_Test8TestBodyEv
FNDA:2,_ZN39ForwardListTest_DefaultConstructor_TestC2Ev
FNDA:2,_ZN39ForwardListTest_DefaultConstructor_TestD0Ev
FNDA:2,_ZN39ForwardListTest_DefaultConstructor_TestD2Ev
FNDA:2,_ZN43ForwardListTest_FrontBackThrowsOnEmpty_Test8TestBodyEv
FNDA:2,_ZN43ForwardListTest_FrontBackThrowsOnEmpty_TestC2Ev
FNDA:2,_ZN43ForwardListTest_FrontBackThrowsOnEmpty_TestD0Ev
FNDA:2,_ZN43ForwardListTest_FrontBackThrowsOnEmpty_TestD2Ev
FNDA:2,_ZN33ForwardListTest_InsertBefore_Test8TestBodyEv
FNDA:2,_ZN33ForwardListTest_InsertBefore_TestC2Ev
FNDA:2,_ZN33ForwardListTest_InsertBefore_TestD0Ev
FNDA:2,_ZN33ForwardListTest_InsertBefore_TestD2Ev
FNDA:2,_ZN42ForwardListTest_InsertBeforeIndexZero_Test8TestBodyEv
FNDA:2,_ZN42ForwardListTest_InsertBeforeIndexZero_TestC2Ev
FNDA:2,_ZN42ForwardListTest_InsertBeforeIndexZero_TestD0Ev
FNDA:2,_ZN42ForwardListTest_InsertBeforeIndexZero_TestD2Ev
FNDA:2,_ZN39ForwardListTest_InsertBeforeThrows_Test8TestBodyEv
FNDA:2,_ZN39ForwardListTest_InsertBeforeThrows_TestC2Ev
FNDA:2,_ZN39ForwardListTest_InsertBeforeThrows_TestD0Ev
FNDA:2,_ZN39ForwardListTest_InsertBeforeThrows_TestD2Ev
FNDA:2,_ZN32ForwardListTest_InsertAfter_Test8TestBodyEv
FNDA:2,_ZN32ForwardListTest_InsertAfter_TestC2Ev
FNDA:2,_ZN32ForwardListTest_InsertAfter_TestD0Ev
FNDA:2,_ZN32ForwardListTest_InsertAfter_TestD2Ev
FNDA:2,_ZN38ForwardListTest_InsertAfterThrows_Test8TestBodyEv
FNDA:2,_ZN38ForwardListTest_InsertAfterThrows_TestC2Ev
FNDA:2,_ZN38ForwardListTest_InsertAfterThrows_TestD0Ev
FNDA:2,_ZN38ForwardListTest_InsertAfterThrows_TestD2Ev
FNDA:2,_ZN29ForwardListTest_PopFront_Test8TestBodyEv
FNDA:2,_ZN29ForwardListTest_PopFront_TestC2Ev
FNDA:2,_ZN29ForwardListTest_PopFront_TestD0Ev
FNDA:2,_ZN29ForwardListTest_PopFront_TestD2Ev
FNDA:2,_ZN35ForwardListTest_PopFrontThrows_Test8TestBodyEv
FNDA:2,_ZN35ForwardListTest_PopFrontThrows_TestC2Ev
FNDA:2,_ZN35ForwardListTest_PopFrontThrows_TestD0Ev
FNDA:2,_ZN35ForwardListTest_PopFrontThrows_TestD2Ev
FNDA:2,_ZN28ForwardListTest_PopBack_Test8TestBodyEv
FNDA:2,_ZN28ForwardListTest_PopBack_TestC2Ev
FNDA:2,_ZN28ForwardListTest_PopBack_TestD0Ev
FNDA:2,_ZN28ForwardListTest_PopBack_TestD2Ev
FNF:112
FNH:112
DA:4,8
DA:5,2
DA:6,2
DA:7,2
DA:8,2
DA:10,8
DA:11,2
DA:12,2
DA:13,2
DA:14,2
DA:15,2
DA:17,8
DA:18,2
DA:19,2
DA:20,2
DA:21,2
DA:22,2
DA:23,2
DA:25,8
DA:26,2
DA:27,2
DA:28,2
DA:29,2
DA:30,2
DA:31,2
DA:33,8
DA:34,2
DA:35,2
DA:36,2
DA:38,4
DA:39,2
DA:40,2
DA:41,2
DA:43,8
DA:44,2
DA:45,2
DA:46,2
DA:47,2
DA:49,8
DA:50,2
DA:51,2
DA:52,2
DA:53,2
DA:54,2
DA:56,8
DA:57,2
DA:58,2
DA:59,2
DA:60,2
DA:62,8
DA:63,2
DA:64,2
DA:65,2
DA:66,2
DA:68,8
DA:69,2
DA:70,2
DA:71,2
DA:72,2
DA:73,2
DA:75,8
DA:76,2
DA:77,2
DA:78,2
DA:79,2
DA:81,8
DA:82,2
DA:83,2
DA:84,2
DA:85,2
DA:86,2
DA:88,8
DA:89,2
DA:90,2
DA:91,2
DA:93,8
DA:94,2
DA:95,2
DA:96,2
DA:97,2
DA:98,2
DA:100,8
DA:101,2
DA:102,2
DA:103,2
DA:104,2
DA:106,8
DA:107,2
DA:108,2
DA:109,2
DA:111,8
DA:112,2
DA:113,2
DA:114,2
DA:115,2
DA:117,8
DA:118,2
DA:119,2
DA:120,2
DA:121,2
DA:123,8
DA:124,2
DA:125,2
DA:126,2
DA:127,2
DA:128,2
DA:130,8
DA:131,2
DA:132,2
DA:133,2
DA:134,2
DA:136,8
DA:137,2
DA:138,2
DA:139,2
DA:140,2
DA:142,8
DA:143,2
DA:144,2
DA:145,2
DA:146,2
DA:148,8
DA:149,2
DA:150,2
DA:151,2
DA:153,8
DA:154,2
DA:155,2
DA:156,2
DA:157,2
DA:159,8
DA:160,2
DA:161,2
DA:162,2
DA:163,2
DA:165,8
DA:166,2
DA:167,2
DA:168,2
DA:170,8
DA:171,2
DA:172,2
DA:173,2
DA:175,8
DA:176,2
DA:177,2
DA:178,2
DA:179,2
DA:180,2
DA:181,2
DA:182,2
LF:151
LH:151
end_of_record
TN:
SF:/home/xxaqurm/proga/ProgrammingCourse/LaboratoryWork/Semester_3/Laboratory_3/C++/tests/linear_probing_hash_map_test.cpp
FN:10,10,_ZN35HashMapTest_InsertAddsElements_Test8TestBodyEv
FN:10,10,_ZN35HashMapTest_InsertAddsElements_TestC2Ev
FN:10,10,_ZN35HashMapTest_InsertAddsElements_TestD0Ev
FN:10,10,_ZN35HashMapTest_InsertAddsElements_TestD2Ev
FN:22,22,_ZN35HashMapTest_InsertUpdatesValue_Test8TestBodyEv
FN:22,22,_ZN35HashMapTest_InsertUpdatesValue_TestC2Ev
FN:22,22,_ZN35HashMapTest_InsertUpdatesValue_TestD0Ev
FN:22,22,_ZN35HashMapTest_InsertUpdatesValue_TestD2Ev
FN:31,31,_ZN33HashMapTest_RemoveDeletesKey_Test8TestBodyEv
FN:31,31,_ZN33HashMapTest_RemoveDeletesKey_TestC2Ev
FN:31,31,_ZN33HashMapTest_RemoveDeletesKey_TestD0Ev
FN:31,31,_ZN33HashMapTest_RemoveDeletesKey_TestD2Ev
FN:4,4,_ZN32HashMapTest_EmptyOnCreation_Test8TestBodyEv
FN:4,4,_ZN32HashMapTest_EmptyOnCreation_TestC2Ev
FN:4,4,_ZN32HashMapTest_EmptyOnCreation_TestD0Ev
FN:4,4,_ZN32HashMapTest_EmptyOnCreation_TestD2Ev
FN:43,43,_ZN30HashMapTest_ContainsWorks_Test8TestBodyEv
FN:43,43,_ZN30HashMapTest_ContainsWorks_TestC2Ev
FN:43,43,_ZN30HashMapTest_ContainsWorks_TestD0Ev
FN:43,43,_ZN30HashMapTest_ContainsWorks_TestD2Ev
FN:51,51,_ZN39HashMapTest_GetReturnsCorrectValue_Test8TestBodyEv
FN:51,51,_ZN39HashMapTest_GetReturnsCorrectValue_TestC2Ev
FN:51,51,_ZN39HashMapTest_GetReturnsCorrectValue_TestD0Ev
FN:51,51,_ZN39HashMapTest_GetReturnsCorrectValue_TestD2Ev
FN:57,57,_ZN36HashMapTest_GetThrowsIfNotFound_Test8TestBodyEv
FN:57,57,_ZN36HashMapTest_GetThrowsIfNotFound_TestC2Ev
FN:57,57,_ZN36HashMapTest_GetThrowsIfNotFound_TestD0Ev
FN:57,57,_ZN36HashMapTest_GetThrowsIfNotFound_TestD2Ev
FN:63,63,_ZN35HashMapTest_SizeAndIsEmptyWork_Test8TestBodyEv
FN:63,63,_ZN35HashMapTest_SizeAndIsEmptyWork_TestC2Ev
FN:63,63,_ZN35HashMapTest_SizeAndIsEmptyWork_TestD0Ev
FN:63,63,_ZN35HashMapTest_SizeAndIsEmptyWork_TestD2Ev
FN:77,84,_ZN31HashMapTest_ThrowsWhenFull_Test8TestBodyEv
FN:77,84,_ZN31HashMapTest_ThrowsWhenFull_TestC2Ev
FN:77,84,_ZN31HashMapTest_ThrowsWhenFull_TestD0Ev
FN:77,84,_ZN31HashMapTest_ThrowsWhenFull_TestD2Ev
FN:86,86,_ZN34HashMapTest_HandlesCollisions_Test8TestBodyEv
FN:86,86,_ZN34HashMapTest_HandlesCollisions_TestC2Ev
FN:86,86,_ZN34HashMapTest_HandlesCollisions_TestD0Ev
FN:86,86,_ZN34HashMapTest_HandlesCollisions_TestD2Ev
FN:96,96,_ZN34HashMapTest_RemoveAndReinsert_Test8TestBodyEv
FN:96,96,_ZN34HashMapTest_RemoveAndReinsert_TestC2Ev
FN:96,96,_ZN34HashMapTest_RemoveAndReinsert_TestD0Ev
FN:96,96,_ZN34HashMapTest_RemoveAndReinsert_TestD2Ev
FNDA:2,_ZN35HashMapTest_InsertAddsElements_Test8TestBodyEv
FNDA:2,_ZN35HashMapTest_InsertAddsElements_TestC2Ev
FNDA:2,_ZN35HashMapTest_InsertAddsElements_TestD0Ev
FNDA:2,_ZN35HashMapTest_InsertAddsElements_TestD2Ev
FNDA:2,_ZN35HashMapTest_InsertUpdatesValue_Test8TestBodyEv
FNDA:2,_ZN35HashMapTest_InsertUpdatesValue_TestC2Ev
FNDA:2,_ZN35HashMapTest_InsertUpdatesValue_TestD0Ev
FNDA:2,_ZN35HashMapTest_InsertUpdatesValue_TestD2Ev
FNDA:2,_ZN33HashMapTest_RemoveDeletesKey_Test8TestBodyEv
FNDA:2,_ZN33HashMapTest_RemoveDeletesKey_TestC2Ev
FNDA:2,_ZN33HashMapTest_RemoveDeletesKey_TestD0Ev
FNDA:2,_ZN33HashMapTest_RemoveDeletesKey_TestD2Ev
FNDA:2,_ZN32HashMapTest_EmptyOnCreation_Test8TestBodyEv
FNDA:2,_ZN32HashMapTest_EmptyOnCreation_TestC2Ev
FNDA:2,_ZN32HashMapTest_EmptyOnCreation_TestD0Ev
FNDA:2,_ZN32HashMapTest_EmptyOnCreation_TestD2Ev
FNDA:2,_ZN30HashMapTest_ContainsWorks_Test8TestBodyEv
FNDA:2,_ZN30HashMapTest_ContainsWorks_TestC2Ev
FNDA:2,_ZN30HashMapTest_ContainsWorks_TestD0Ev
FNDA:2,_ZN30HashMapTest_ContainsWorks_TestD2Ev
FNDA:2,_ZN39HashMapTest_GetReturnsCorrectValue_Test8TestBodyEv
FNDA:2,_ZN39HashMapTest_GetReturnsCorrectValue_TestC2Ev
FNDA:2,_ZN39HashMapTest_GetReturnsCorrectValue_TestD0Ev
FNDA:2,_ZN39HashMapTest_GetReturnsCorrectValue_TestD2Ev
FNDA:2,_ZN36HashMapTest_GetThrowsIfNotFound_Test8TestBodyEv
FNDA:2,_ZN36HashMapTest_GetThrowsIfNotFound_TestC2Ev
FNDA:2,_ZN36HashMapTest_GetThrowsIfNotFound_TestD0Ev
FNDA:2,_ZN36HashMapTest_GetThrowsIfNotFound_TestD2Ev
FNDA:2,_ZN35HashMapTest_SizeAndIsEmptyWork_Test8TestBodyEv
FNDA:2,_ZN35HashMapTest_SizeAndIsEmptyWork_TestC2Ev
FNDA:2,_ZN35HashMapTest_SizeAndIsEmptyWork_TestD0Ev
FNDA:2,_ZN35HashMapTest_SizeAndIsEmptyWork_TestD2Ev
FNDA:2,_ZN31HashMapTest_ThrowsWhenFull_Test8TestBodyEv
FNDA:2,_ZN31HashMapTest_ThrowsWhenFull_TestC2Ev
FNDA:2,_ZN31HashMapTest_ThrowsWhenFull_TestD0Ev
FNDA:2,_ZN31HashMapTest_ThrowsWhenFull_TestD2Ev
FNDA:2,_ZN34HashMapTest_HandlesCollisions_Test8TestBodyEv
FNDA:2,_ZN34HashMapTest_HandlesCollisions_TestC2Ev
FNDA:2,_ZN34HashMapTest_HandlesCollisions_TestD0Ev
FNDA:2,_ZN34HashMapTest_HandlesCollisions_TestD2Ev
FNDA:2,_ZN34HashMapTest_RemoveAndReinsert_Test8TestBodyEv
FNDA:2,_ZN34HashMapTest_RemoveAndReinsert_TestC2Ev
FNDA:2,_ZN34HashMapTest_RemoveAndReinsert_TestD0Ev
FNDA:2,_ZN34HashMapTest_RemoveAndReinsert_TestD2Ev
FNF:44
FNH:44
DA:4,8
DA:5,2
DA:6,2
DA:7,2
DA:8,2
DA:10,8
DA:11,2
DA:12,2
DA:13,2
DA:15,2
DA:16,2
DA:17,2
DA:18,2
DA:19,2
DA:20,2
DA:22,8
DA:23,2
DA:24,2
DA:25,2
DA:27,2
DA:28,2
DA:29,2
DA:31,8
DA:32,2
DA:33,2
DA:34,2
DA:36,2
DA:37,2
DA:38,2
DA:40,2
DA:41,2
DA:43,8
DA:44,2
DA:45,2
DA:47,2
DA:48,2
DA:49,2
DA:51,8
DA:52,2
DA:53,2
DA:54,2
DA:55,2
DA:57,8
DA:58,2
DA:59,2
DA:60,2
DA:61,2
DA:63,8
DA:64,2
DA:65,2
DA:66,2
DA:68,2
DA:69,2
DA:70,2
DA:72,2
DA:73,2
DA:74,2
DA:75,2
DA:77,8
DA:78,2
DA:79,2
DA:80,2
DA:81,2
DA:83,2
DA:84,2
DA:86,8
DA:87,2
DA:89,2
DA:90,2
DA:92,2
DA:93,2
DA:94,2
DA:96,8
DA:97,2
DA:98,2
DA:99,2
DA:100,2
DA:101,2
DA:103,2
DA:104,2
DA:105,2
DA:106,2
LF:82
LH:82
end_of_record
TN:
SF:/home/xxaqurm/proga/ProgrammingCourse/LaboratoryWork/Semester_3/Laboratory_3/C++/tests/linked_list_test.cpp
FN:10,10,_ZN39LinkedListTest_InitListConstructor_Test8TestBodyEv
FN:10,10,_ZN39LinkedListTest_InitListConstructor_TestC2Ev
FN:10,10,_ZN39LinkedListTest_InitListConstructor_TestD0Ev
FN:10,10,_ZN39LinkedListTest_InitListConstructor_TestD2Ev
FN:107,107,_ZN35LinkedListTest_RemoveValueHead_Test8TestBodyEv
FN:107,107,_ZN35LinkedListTest_RemoveValueHead_TestC2Ev
FN:107,107,_ZN35LinkedListTest_RemoveValueHead_TestD0Ev
FN:107,107,_ZN35LinkedListTest_RemoveValueHead_TestD2Ev
FN:115,115,_ZN38LinkedListTest_RemoveBeforeNormal_Test8TestBodyEv
FN:115,115,_ZN38LinkedListTest_RemoveBeforeNormal_TestC2Ev
FN:115,115,_ZN38LinkedListTest_RemoveBeforeNormal_TestD0Ev
FN:115,115,_ZN38LinkedListTest_RemoveBeforeNormal_TestD2Ev
FN:123,126,_ZN38LinkedListTest_RemoveBeforeThrows_Test8TestBodyEv
FN:123,126,_ZN38LinkedListTest_RemoveBeforeThrows_TestC2Ev
FN:123,126,_ZN38LinkedListTest_RemoveBeforeThrows_TestD0Ev
FN:123,126,_ZN38LinkedListTest_RemoveBeforeThrows_TestD2Ev
FN:128,128,_ZN37LinkedListTest_RemoveAfterNormal_Test8TestBodyEv
FN:128,128,_ZN37LinkedListTest_RemoveAfterNormal_TestC2Ev
FN:128,128,_ZN37LinkedListTest_RemoveAfterNormal_TestD0Ev
FN:128,128,_ZN37LinkedListTest_RemoveAfterNormal_TestD2Ev
FN:136,136,_ZN37LinkedListTest_RemoveAfterThrows_Test8TestBodyEv
FN:136,136,_ZN37LinkedListTest_RemoveAfterThrows_TestC2Ev
FN:136,136,_ZN37LinkedListTest_RemoveAfterThrows_TestD0Ev
FN:136,136,_ZN37LinkedListTest_RemoveAfterThrows_TestD2Ev
FN:141,141,_ZN35LinkedListTest_FrontBackAccess_Test8TestBodyEv
FN:141,141,_ZN35LinkedListTest_FrontBackAccess_TestC2Ev
FN:141,141,_ZN35LinkedListTest_FrontBackAccess_TestD0Ev
FN:141,141,_ZN35LinkedListTest_FrontBackAccess_TestD2Ev
FN:147,147,_ZN38LinkedListTest_FrontThrowsOnEmpty_Test8TestBodyEv
FN:147,147,_ZN38LinkedListTest_FrontThrowsOnEmpty_TestC2Ev
FN:147,147,_ZN38LinkedListTest_FrontThrowsOnEmpty_TestD0Ev
FN:147,147,_ZN38LinkedListTest_FrontThrowsOnEmpty_TestD2Ev
FN:152,152,_ZN29LinkedListTest_FindWorks_Test8TestBodyEv
FN:152,152,_ZN29LinkedListTest_FindWorks_TestC2Ev
FN:152,152,_ZN29LinkedListTest_FindWorks_TestD0Ev
FN:152,152,_ZN29LinkedListTest_FindWorks_TestD2Ev
FN:159,159,_ZN28LinkedListTest_AtNormal_Test8TestBodyEv
FN:159,159,_ZN28LinkedListTest_AtNormal_TestC2Ev
FN:159,159,_ZN28LinkedListTest_AtNormal_TestD0Ev
FN:159,159,_ZN28LinkedListTest_AtNormal_TestD2Ev
FN:164,164,_ZN38LinkedListTest_AtThrowsOnBadIndex_Test8TestBodyEv
FN:164,164,_ZN38LinkedListTest_AtThrowsOnBadIndex_TestC2Ev
FN:164,164,_ZN38LinkedListTest_AtThrowsOnBadIndex_TestD0Ev
FN:164,164,_ZN38LinkedListTest_AtThrowsOnBadIndex_TestD2Ev
FN:169,175,_ZN30LinkedListTest_ClearWorks_Test8TestBodyEv
FN:169,175,_ZN30LinkedListTest_ClearWorks_TestC2Ev
FN:169,175,_ZN30LinkedListTest_ClearWorks_TestD0Ev
FN:169,175,_ZN30LinkedListTest_ClearWorks_TestD2Ev
FN:177,184,_ZN31LinkedListTest_SizeCorrect_Test8TestBodyEv
FN:177,184,_ZN31LinkedListTest_SizeCorrect_TestC2Ev
FN:177,184,_ZN31LinkedListTest_SizeCorrect_TestD0Ev
FN:177,184,_ZN31LinkedListTest_SizeCorrect_TestD2Ev
FN:18,18,_ZN29LinkedListTest_PushFront_Test8TestBodyEv
FN:18,18,_ZN29LinkedListTest_PushFront_TestC2Ev
FN:18,18,_ZN29LinkedListTest_PushFront_TestD0Ev
FN:18,18,_ZN29LinkedListTest_PushFront_TestD2Ev
FN:28,28,_ZN28LinkedListTest_PushBack_Test8TestBodyEv
FN:28,28,_ZN28LinkedListTest_PushBack_TestC2Ev
FN:28,28,_ZN28LinkedListTest_PushBack_TestD0Ev
FN:28,28,_ZN28LinkedListTest_PushBack_TestD2Ev
FN:38,44,_ZN34LinkedListTest_PopFrontNormal_Test8TestBodyEv
FN:38,44,_ZN34LinkedListTest_PopFrontNormal_TestC2Ev
FN:38,44,_ZN34LinkedListTest_PopFrontNormal_TestD0Ev
FN:38,44,_ZN34LinkedListTest_PopFrontNormal_TestD2Ev
FN:4,4,_ZN35LinkedListTest_EmptyOnCreation_Test8TestBodyEv
FN:4,4,_ZN35LinkedListTest_EmptyOnCreation_TestC2Ev
FN:4,4,_ZN35LinkedListTest_EmptyOnCreation_TestD0Ev
FN:4,4,_ZN35LinkedListTest_EmptyOnCreation_TestD2Ev
FN:46,46,_ZN41LinkedListTest_PopFrontThrowsOnEmpty_Test8TestBodyEv
FN:46,46,_ZN41LinkedListTest_PopFrontThrowsOnEmpty_TestC2Ev
FN:46,46,_ZN41LinkedListTest_PopFrontThrowsOnEmpty_TestD0Ev
FN:46,46,_ZN41LinkedListTest_PopFrontThrowsOnEmpty_TestD2Ev
FN:51,51,_ZN33LinkedListTest_PopBackNormal_Test8TestBodyEv
FN:51,51,_ZN33LinkedListTest_PopBackNormal_TestC2Ev
FN:51,51,_ZN33LinkedListTest_PopBackNormal_TestD0Ev
FN:51,51,_ZN33LinkedListTest_PopBackNormal_TestD2Ev
FN:59,59,_ZN40LinkedListTest_PopBackThrowsOnEmpty_Test8TestBodyEv
FN:59,59,_ZN40LinkedListTest_PopBackThrowsOnEmpty_TestC2Ev
FN:59,59,_ZN40LinkedListTest_PopBackThrowsOnEmpty_TestD0Ev
FN:59,59,_ZN40LinkedListTest_PopBackThrowsOnEmpty_TestD2Ev
FN:64,64,_ZN36LinkedListTest_InsertBeforeHead_Test8TestBodyEv
FN:64,64,_ZN36LinkedListTest_InsertBeforeHead_TestC2Ev
FN:64,64,_ZN36LinkedListTest_InsertBeforeHead_TestD0Ev
FN:64,64,_ZN36LinkedListTest_InsertBeforeHead_TestD2Ev
FN:72,72,_ZN38LinkedListTest_InsertBeforeMiddle_Test8TestBodyEv
FN:72,72,_ZN38LinkedListTest_InsertBeforeMiddle_TestC2Ev
FN:72,72,_ZN38LinkedListTest_InsertBeforeMiddle_TestD0Ev
FN:72,72,_ZN38LinkedListTest_InsertBeforeMiddle_TestD2Ev
FN:80,80,_ZN42LinkedListTest_InsertBeforeOutOfRange_Test8TestBodyEv
FN:80,80,_ZN42LinkedListTest_InsertBeforeOutOfRange_TestC2Ev
FN:80,80,_ZN42LinkedListTest_InsertBeforeOutOfRange_TestD0Ev
FN:80,80,_ZN42LinkedListTest_InsertBeforeOutOfRange_TestD2Ev
FN:85,91,_ZN37LinkedListTest_InsertAfterNormal_Test8TestBodyEv
FN:85,91,_ZN37LinkedListTest_InsertAfterNormal_TestC2Ev
FN:85,91,_ZN37LinkedListTest_InsertAfterNormal_TestD0Ev
FN:85,91,_ZN37LinkedListTest_InsertAfterNormal_TestD2Ev
FN:93,93,_ZN41LinkedListTest_InsertAfterOutOfRange_Test8TestBodyEv
FN:93,93,_ZN41LinkedListTest_InsertAfterOutOfRange_TestC2Ev
FN:93,93,_ZN41LinkedListTest_InsertAfterOutOfRange_TestD0Ev
FN:93,93,_ZN41LinkedListTest_InsertAfterOutOfRange_TestD2Ev
FN:98,98,_ZN37LinkedListTest_RemoveValueMiddle_Test8TestBodyEv
FN:98,98,_ZN37LinkedListTest_RemoveValueMiddle_TestC2Ev
FN:98,98,_ZN37LinkedListTest_RemoveValueMiddle_TestD0Ev
FN:98,98,_ZN37LinkedListTest_RemoveValueMiddle_TestD2Ev
FNDA:2,_ZN39LinkedListTest_InitListConstructor_Test8TestBodyEv
FNDA:2,_ZN39LinkedListTest_InitListConstructor_TestC2Ev
FNDA:2,_ZN39LinkedListTest_InitListConstructor_TestD0Ev
FNDA:2,_ZN39LinkedListTest_InitListConstructor_TestD2Ev
FNDA:2,_ZN35LinkedListTest_RemoveValueHead_Test8TestBodyEv
FNDA:2,_ZN35LinkedListTest_RemoveValueHead_TestC2Ev
FNDA:2,_ZN35LinkedListTest_RemoveValueHead_TestD0Ev
FNDA:2,_ZN35LinkedListTest_RemoveValueHead_TestD2Ev
FNDA:2,_ZN38LinkedListTest_RemoveBeforeNormal_Test8TestBodyEv
FNDA:2,_ZN38LinkedListTest_RemoveBeforeNormal_TestC2Ev
FNDA:2,_ZN38LinkedListTest_RemoveBeforeNormal_TestD0Ev
FNDA:2,_ZN38LinkedListTest_RemoveBeforeNormal_TestD2Ev
FNDA:2,_ZN38LinkedListTest_RemoveBeforeThrows_Test8TestBodyEv
FNDA:2,_ZN38LinkedListTest_RemoveBeforeThrows_TestC2Ev
FNDA:2,_ZN38LinkedListTest_RemoveBeforeThrows_TestD0Ev
FNDA:2,_ZN38LinkedListTest_RemoveBeforeThrows_TestD2Ev
FNDA:2,_ZN37LinkedListTest_RemoveAfterNormal_Test8TestBodyEv
FNDA:2,_ZN37LinkedListTest_RemoveAfterNormal_TestC2Ev
FNDA:2,_ZN37LinkedListTest_RemoveAfterNormal_TestD0Ev
FNDA:2,_ZN37LinkedListTest_RemoveAfterNormal_TestD2Ev
FNDA:2,_ZN37LinkedListTest_RemoveAfterThrows_Test8TestBodyEv
FNDA:2,_ZN37LinkedListTest_RemoveAfterThrows_TestC2Ev
FNDA:2,_ZN37LinkedListTest_RemoveAfterThrows_TestD0Ev
FNDA:2,_ZN37LinkedListTest_RemoveAfterThrows_TestD2Ev
FNDA:2,_ZN35LinkedListTest_FrontBackAccess_Test8TestBodyEv
FNDA:2,_ZN35LinkedListTest_FrontBackAccess_TestC2Ev
FNDA:2,_ZN35LinkedListTest_FrontBackAccess_TestD0Ev
FNDA:2,_ZN35LinkedListTest_FrontBackAccess_TestD2Ev
FNDA:2,_ZN38LinkedListTest_FrontThrowsOnEmpty_Test8TestBodyEv
FNDA:2,_ZN38LinkedListTest_FrontThrowsOnEmpty_TestC2Ev
FNDA:2,_ZN38LinkedListTest_FrontThrowsOnEmpty_TestD0Ev
FNDA:2,_ZN38LinkedListTest_FrontThrowsOnEmpty_TestD2Ev
FNDA:2,_ZN29LinkedListTest_FindWorks_Test8TestBodyEv
FNDA:2,_ZN29LinkedListTest_FindWorks_TestC2Ev
FNDA:2,_ZN29LinkedListTest_FindWorks_TestD0Ev
FNDA:2,_ZN29LinkedListTest_FindWorks_TestD2Ev
FNDA:2,_ZN28LinkedListTest_AtNormal_Test8TestBodyEv
FNDA:2,_ZN28LinkedListTest_AtNormal_TestC2Ev
FNDA:2,_ZN28LinkedListTest_AtNormal_TestD0Ev
FNDA:2,_ZN28LinkedListTest_AtNormal_TestD2Ev
FNDA:2,_ZN38LinkedListTest_AtThrowsOnBadIndex_Test8TestBodyEv
FNDA:2,_ZN38LinkedListTest_AtThrowsOnBadIndex_TestC2Ev
FNDA:2,_ZN38LinkedListTest_AtThrowsOnBadIndex_TestD0Ev
FNDA:2,_ZN38LinkedListTest_AtThrowsOnBadIndex_TestD2Ev
FNDA:2,_ZN30LinkedListTest_ClearWorks_Test8TestBodyEv
FNDA:2,_ZN30LinkedListTest_ClearWorks_TestC2Ev
FNDA:2,_ZN30LinkedListTest_ClearWorks_TestD0Ev
FNDA:2,_ZN30LinkedListTest_ClearWorks_TestD2Ev
FNDA:2,_ZN31LinkedListTest_SizeCorrect_Test8TestBodyEv
FNDA:2,_ZN31LinkedListTest_SizeCorrect_TestC2Ev
FNDA:2,_ZN31LinkedListTest_SizeCorrect_TestD0Ev
FNDA:2,_ZN31LinkedListTest_SizeCorrect_TestD2Ev
FNDA:2,_ZN29LinkedListTest_PushFront_Test8TestBodyEv
FNDA:2,_ZN29LinkedListTest_PushFront_TestC2Ev
FNDA:2,_ZN29LinkedListTest_PushFront_TestD0Ev
FNDA:2,_ZN29LinkedListTest_PushFront_TestD2Ev
FNDA:2,_ZN28LinkedListTest_PushBack_Test8TestBodyEv
FNDA:2,_ZN28LinkedListTest_PushBack_TestC2Ev
FNDA:2,_ZN28LinkedListTest_PushBack_TestD0Ev
FNDA:2,_ZN28LinkedListTest_PushBack_TestD2Ev
FNDA:2,_ZN34LinkedListTest_PopFrontNormal_Test8TestBodyEv
FNDA:2,_ZN34LinkedListTest_PopFrontNormal_TestC2Ev
FNDA:2,_ZN34LinkedListTest_PopFrontNormal_TestD0Ev
FNDA:2,_ZN34LinkedListTest_PopFrontNormal_TestD2Ev
FNDA:2,_ZN35LinkedListTest_EmptyOnCreation_Test8TestBodyEv
FNDA:2,_ZN35LinkedListTest_EmptyOnCreation_TestC2Ev
FNDA:2,_ZN35LinkedListTest_EmptyOnCreation_TestD0Ev
FNDA:2,_ZN35LinkedListTest_EmptyOnCreation_TestD2Ev
FNDA:2,_ZN41LinkedListTest_PopFrontThrowsOnEmpty_Test8TestBodyEv
FNDA:2,_ZN41LinkedListTest_PopFrontThrowsOnEmpty_TestC2Ev
FNDA:2,_ZN41LinkedListTest_PopFrontThrowsOnEmpty_TestD0Ev
FNDA:2,_ZN41LinkedListTest_PopFrontThrowsOnEmpty_TestD2Ev
FNDA:2,_ZN33LinkedListTest_PopBackNormal_Test8TestBodyEv
FNDA:2,_ZN33LinkedListTest_PopBackNormal_TestC2Ev
FNDA:2,_ZN33LinkedListTest_PopBackNormal_TestD0Ev
FNDA:2,_ZN33LinkedListTest_PopBackNormal_TestD2Ev
FNDA:2,_ZN40LinkedListTest_PopBackThrowsOnEmpty_Test8TestBodyEv
FNDA:2,_ZN40LinkedListTest_PopBackThrowsOnEmpty_TestC2Ev
FNDA:2,_ZN40LinkedListTest_PopBackThrowsOnEmpty_TestD0Ev
FNDA:2,_ZN40LinkedListTest_PopBackThrowsOnEmpty_TestD2Ev
FNDA:2,_ZN36LinkedListTest_InsertBeforeHead_Test8TestBodyEv
FNDA:2,_ZN36LinkedListTest_InsertBeforeHead_TestC2Ev
FNDA:2,_ZN36LinkedListTest_InsertBeforeHead_TestD0Ev
FNDA:2,_ZN36LinkedListTest_InsertBeforeHead_TestD2Ev
FNDA:2,_ZN38LinkedListTest_InsertBeforeMiddle_Test8TestBodyEv
FNDA:2,_ZN38LinkedListTest_InsertBeforeMiddle_TestC2Ev
FNDA:2,_ZN38LinkedListTest_InsertBeforeMiddle_TestD0Ev
FNDA:2,_ZN38LinkedListTest_InsertBeforeMiddle_TestD2Ev
FNDA:2,_ZN42LinkedListTest_InsertBeforeOutOfRange_Test8TestBodyEv
FNDA:2,_ZN42LinkedListTest_InsertBeforeOutOfRange_TestC2Ev
FNDA:2,_ZN42LinkedListTest_InsertBeforeOutOfRange_TestD0Ev
FNDA:2,_ZN42LinkedListTest_InsertBeforeOutOfRange_TestD2Ev
FNDA:2,_ZN37LinkedListTest_InsertAfterNormal_Test8TestBodyEv
FNDA:2,_ZN37LinkedListTest_InsertAfterNormal_TestC2Ev
FNDA:2,_ZN37LinkedListTest_InsertAfterNormal_TestD0Ev
FNDA:2,_ZN37LinkedListTest_InsertAfterNormal_TestD2Ev
FNDA:2,_ZN41LinkedListTest_InsertAfterOutOfRange_Test8TestBodyEv
FNDA:2,_ZN41LinkedListTest_InsertAfterOutOfRange_TestC2Ev
FNDA:2,_ZN41LinkedListTest_InsertAfterOutOfRange_TestD0Ev
FNDA:2,_ZN41LinkedListTest_InsertAfterOutOfRange_TestD2Ev
FNDA:2,_ZN37LinkedListTest_RemoveValueMiddle_Test8TestBodyEv
FNDA:2,_ZN37LinkedListTest_RemoveValueMiddle_TestC2Ev
FNDA:2,_ZN37LinkedListTest_RemoveValueMiddle_TestD0Ev
FNDA:2,_ZN37LinkedListTest_RemoveValueMiddle_TestD2Ev
FNF:104
FNH:104
DA:4,8
DA:5,2
DA:6,2
DA:7,2
DA:8,2
DA:10,8
DA:11,2
DA:12,2
DA:13,2
DA:14,2
DA:15,2
DA:16,2
DA:18,8
DA:19,2
DA:20,2
DA:21,2
DA:23,2
DA:24,2
DA:25,2
DA:26,2
DA:28,8
DA:29,2
DA:30,2
DA:31,2
DA:33,2
DA:34,2
DA:35,2
DA:36,2
DA:38,8
DA:39,2
DA:40,2
DA:42,2
DA:43,2
DA:44,2
DA:46,8
DA:47,2
DA:48,2
DA:49,2
DA:51,8
DA:52,2
DA:53,2
DA:55,2
DA:56,2
DA:57,2
DA:59,8
DA:60,2
DA:61,2
DA:62,2
DA:64,8
DA:65,2
DA:66,2
DA:68,2
DA:69,2
DA:70,2
DA:72,8
DA:73,2
DA:74,2
DA:76,2
DA:77,2
DA:78,2
DA:80,8
DA:81,2
DA:82,2
DA:83,2
DA:85,8
DA:86,2
DA:87,2
DA:89,2
DA:90,2
DA:91,2
DA:93,8
DA:94,2
DA:95,2
DA:96,2
DA:98,8
DA:99,2
DA:100,2
DA:101,2
DA:103,2
DA:104,2
DA:105,2
DA:107,8
DA:108,2
DA:109,2
DA:110,2
DA:112,2
DA:113,2
DA:115,8
DA:116,2
DA:117,2
DA:119,2
DA:120,2
DA:121,2
DA:123,8
DA:124,2
DA:125,2
DA:126,2
DA:128,8
DA:129,2
DA:130,2
DA:132,2
DA:133,2
DA:134,2
DA:136,8
DA:137,2
DA:138,2
DA:139,2
DA:141,8
DA:142,2
DA:143,2
DA:144,2
DA:145,2
DA:147,8
DA:148,2
DA:149,2
DA:150,2
DA:152,8
DA:153,2
DA:154,2
DA:155,2
DA:156,2
DA:157,2
DA:159,8
DA:160,2
DA:161,2
DA:162,2
DA:164,8
DA:165,2
DA:166,2
DA:167,2
DA:169,8
DA:170,2
DA:171,2
DA:173,2
DA:174,2
DA:175,2
DA:177,8
DA:178,2
DA:179,2
DA:180,2
DA:181,2
DA:183,2
DA:184,2
LF:143
LH:143
end_of_record
TN:
SF:/home/xxaqurm/proga/ProgrammingCourse/LaboratoryWork/Semester_3/Laboratory_3/C++/tests/queue_test.cpp
FN:10,10,_ZN35QueueTest_EnqueueIncreasesSize_Test8TestBodyEv
FN:10,10,_ZN35QueueTest_EnqueueIncreasesSize_TestC2Ev
FN:10,10,_ZN35QueueTest_EnqueueIncreasesSize_TestD0Ev
FN:10,10,_ZN35QueueTest_EnqueueIncreasesSize_TestD2Ev
FN:100,108,_ZN28QueueTest_PushBackWorks_Test8TestBodyEv
FN:100,108,_ZN28QueueTest_PushBackWorks_TestC2Ev
FN:100,108,_ZN28QueueTest_PushBackWorks_TestD0Ev
FN:100,108,_ZN28QueueTest_PushBackWorks_TestD2Ev
FN:110,118,_ZN26QueueTest_RemoveWorks_Test8TestBodyEv
FN:110,118,_ZN26QueueTest_RemoveWorks_TestC2Ev
FN:110,118,_ZN26QueueTest_RemoveWorks_TestD0Ev
FN:110,118,_ZN26QueueTest_RemoveWorks_TestD2Ev
FN:20,20,_ZN35QueueTest_DequeueDecreasesSize_Test8TestBodyEv
FN:20,20,_ZN35QueueTest_DequeueDecreasesSize_TestC2Ev
FN:20,20,_ZN35QueueTest_DequeueDecreasesSize_TestD0Ev
FN:20,20,_ZN35QueueTest_DequeueDecreasesSize_TestD2Ev
FN:30,30,_ZN35QueueTest_DequeueThrowsOnEmpty_Test8TestBodyEv
FN:30,30,_ZN35QueueTest_DequeueThrowsOnEmpty_TestC2Ev
FN:30,30,_ZN35QueueTest_DequeueThrowsOnEmpty_TestD0Ev
FN:30,30,_ZN35QueueTest_DequeueThrowsOnEmpty_TestD2Ev
FN:35,35,_ZN30QueueTest_FrontBackAccess_Test8TestBodyEv
FN:35,35,_ZN30QueueTest_FrontBackAccess_TestC2Ev
FN:35,35,_ZN30QueueTest_FrontBackAccess_TestD0Ev
FN:35,35,_ZN30QueueTest_FrontBackAccess_TestD2Ev
FN:4,4,_ZN30QueueTest_EmptyOnCreation_Test8TestBodyEv
FN:4,4,_ZN30QueueTest_EmptyOnCreation_TestC2Ev
FN:4,4,_ZN30QueueTest_EmptyOnCreation_TestD0Ev
FN:4,4,_ZN30QueueTest_EmptyOnCreation_TestD2Ev
FN:44,44,_ZN37QueueTest_FrontBackThrowsOnEmpty_Test8TestBodyEv
FN:44,44,_ZN37QueueTest_FrontBackThrowsOnEmpty_TestC2Ev
FN:44,44,_ZN37QueueTest_FrontBackThrowsOnEmpty_TestD0Ev
FN:44,44,_ZN37QueueTest_FrontBackThrowsOnEmpty_TestD2Ev
FN:50,50,_ZN25QueueTest_EmptyWorks_Test8TestBodyEv
FN:50,50,_ZN25QueueTest_EmptyWorks_TestC2Ev
FN:50,50,_ZN25QueueTest_EmptyWorks_TestD0Ev
FN:50,50,_ZN25QueueTest_EmptyWorks_TestD2Ev
FN:59,59,_ZN24QueueTest_SizeWorks_Test8TestBodyEv
FN:59,59,_ZN24QueueTest_SizeWorks_TestC2Ev
FN:59,59,_ZN24QueueTest_SizeWorks_TestD0Ev
FN:59,59,_ZN24QueueTest_SizeWorks_TestD2Ev
FN:69,69,_ZN32QueueTest_ClearEmptiesQueue_Test8TestBodyEv
FN:69,69,_ZN32QueueTest_ClearEmptiesQueue_TestC2Ev
FN:69,69,_ZN32QueueTest_ClearEmptiesQueue_TestD0Ev
FN:69,69,_ZN32QueueTest_ClearEmptiesQueue_TestD2Ev
FN:81,81,_ZN24QueueTest_FindWorks_Test8TestBodyEv
FN:81,81,_ZN24QueueTest_FindWorks_TestC2Ev
FN:81,81,_ZN24QueueTest_FindWorks_TestD0Ev
FN:81,81,_ZN24QueueTest_FindWorks_TestD2Ev
FN:92,92,_ZN29QueueTest_AtReturnsFront_Test8TestBodyEv
FN:92,92,_ZN29QueueTest_AtReturnsFront_TestC2Ev
FN:92,92,_ZN29QueueTest_AtReturnsFront_TestD0Ev
FN:92,92,_ZN29QueueTest_AtReturnsFront_TestD2Ev
FNDA:2,_ZN35QueueTest_EnqueueIncreasesSize_Test8TestBodyEv
FNDA:2,_ZN35QueueTest_EnqueueIncreasesSize_TestC2Ev
FNDA:2,_ZN35QueueTest_EnqueueIncreasesSize_TestD0Ev
FNDA:2,_ZN35QueueTest_EnqueueIncreasesSize_TestD2Ev
FNDA:2,_ZN28QueueTest_PushBackWorks_Test8TestBodyEv
FNDA:2,_ZN28QueueTest_PushBackWorks_TestC2Ev
FNDA:2,_ZN28QueueTest_PushBackWorks_TestD0Ev
FNDA:2,_ZN28QueueTest_PushBackWorks_TestD2Ev
FNDA:2,_ZN26QueueTest_RemoveWorks_Test8TestBodyEv
FNDA:2,_ZN26QueueTest_RemoveWorks_TestC2Ev
FNDA:2,_ZN26QueueTest_RemoveWorks_TestD0Ev
FNDA:2,_ZN26QueueTest_RemoveWorks_TestD2Ev
FNDA:2,_ZN35QueueTest_DequeueDecreasesSize_Test8TestBodyEv
FNDA:2,_ZN35QueueTest_DequeueDecreasesSize_TestC2Ev
FNDA:2,_ZN35QueueTest_DequeueDecreasesSize_TestD0Ev
FNDA:2,_ZN35QueueTest_DequeueDecreasesSize_TestD2Ev
FNDA:2,_ZN35QueueTest_DequeueThrowsOnEmpty_Test8TestBodyEv
FNDA:2,_ZN35QueueTest_DequeueThrowsOnEmpty_TestC2Ev
FNDA:2,_ZN35QueueTest_DequeueThrowsOnEmpty_TestD0Ev
FNDA:2,_ZN35QueueTest_DequeueThrowsOnEmpty_TestD2Ev
FNDA:2,_ZN30QueueTest_FrontBackAccess_Test8TestBodyEv
FNDA:2,_ZN30QueueTest_FrontBackAccess_TestC2Ev
FNDA:2,_ZN30QueueTest_FrontBackAccess_TestD0Ev
FNDA:2,_ZN30QueueTest_FrontBackAccess_TestD2Ev
FNDA:2,_ZN30QueueTest_EmptyOnCreation_Test8TestBodyEv
FNDA:2,_ZN30QueueTest_EmptyOnCreation_TestC2Ev
FNDA:2,_ZN30QueueTest_EmptyOnCreation_TestD0Ev
FNDA:2,_ZN30QueueTest_EmptyOnCreation_TestD2Ev
FNDA:2,_ZN37QueueTest_FrontBackThrowsOnEmpty_Test8TestBodyEv
FNDA:2,_ZN37QueueTest_FrontBackThrowsOnEmpty_TestC2Ev
FNDA:2,_ZN37QueueTest_FrontBackThrowsOnEmpty_TestD0Ev
FNDA:2,_ZN37QueueTest_FrontBackThrowsOnEmpty_TestD2Ev
FNDA:2,_ZN25QueueTest_EmptyWorks_Test8TestBodyEv
FNDA:2,_ZN25QueueTest_EmptyWorks_TestC2Ev
FNDA:2,_ZN25QueueTest_EmptyWorks_TestD0Ev
FNDA:2,_ZN25QueueTest_EmptyWorks_TestD2Ev
FNDA:2,_ZN24QueueTest_SizeWorks_Test8TestBodyEv
FNDA:2,_ZN24QueueTest_SizeWorks_TestC2Ev
FNDA:2,_ZN24QueueTest_SizeWorks_TestD0Ev
FNDA:2,_ZN24QueueTest_SizeWorks_TestD2Ev
FNDA:2,_ZN32QueueTest_ClearEmptiesQueue_Test8TestBodyEv
FNDA:2,_ZN32QueueTest_ClearEmptiesQueue_TestC2Ev
FNDA:2,_ZN32QueueTest_ClearEmptiesQueue_TestD0Ev
FNDA:2,_ZN32QueueTest_ClearEmptiesQueue_TestD2Ev
FNDA:2,_ZN24QueueTest_FindWorks_Test8TestBodyEv
FNDA:2,_ZN24QueueTest_FindWorks_TestC2Ev
FNDA:2,_ZN24QueueTest_FindWorks_TestD0Ev
FNDA:2,_ZN24QueueTest_FindWorks_TestD2Ev
FNDA:2,_ZN29QueueTest_AtReturnsFront_Test8TestBodyEv
FNDA:2,_ZN29QueueTest_AtReturnsFront_TestC2Ev
FNDA:2,_ZN29QueueTest_AtReturnsFront_TestD0Ev
FNDA:2,_ZN29QueueTest_AtReturnsFront_TestD2Ev
FNF:52
FNH:52
DA:4,8
DA:5,2
DA:6,2
DA:7,2
DA:8,2
DA:10,8
DA:11,2
DA:12,2
DA:13,2
DA:15,2
DA:16,2
DA:17,2
DA:18,2
DA:20,8
DA:21,2
DA:22,2
DA:23,2
DA:24,2
DA:26,2
DA:27,2
DA:28,2
DA:30,8
DA:31,2
DA:32,2
DA:33,2
DA:35,8
DA:36,2
DA:37,2
DA:38,2
DA:40,2
DA:41,2
DA:42,2
DA:44,8
DA:45,2
DA:46,2
DA:47,2
DA:48,2
DA:50,8
DA:51,2
DA:52,2
DA:53,2
DA:54,2
DA:55,2
DA:56,2
DA:57,2
DA:59,8
DA:60,2
DA:61,2
DA:62,2
DA:63,2
DA:64,2
DA:65,2
DA:66,2
DA:67,2
DA:69,8
DA:70,2
DA:71,2
DA:72,2
DA:73,2
DA:75,2
DA:76,2
DA:77,2
DA:78,2
DA:79,2
DA:81,8
DA:82,2
DA:83,2
DA:84,2
DA:85,2
DA:87,2
DA:88,2
DA:89,2
DA:90,2
DA:92,8
DA:93,2
DA:94,2
DA:95,2
DA:97,2
DA:98,2
DA:100,8
DA:101,2
DA:102,2
DA:103,2
DA:105,2
DA:106,2
DA:107,2
DA:108,2
DA:110,8
DA:111,2
DA:112,2
DA:113,2
DA:114,2
DA:116,2
DA:117,2
DA:118,2
LF:95
LH:95
end_of_record
TN:
SF:/home/xxaqurm/proga/ProgrammingCourse/LaboratoryWork/Semester_3/Laboratory_3/C++/tests/separate_chaining_hash_map_test.cpp
FN:100,100,_ZN25HashMapTest_ClearMap_Test8TestBodyEv
FN:100,100,_ZN25HashMapTest_ClearMap_TestC2Ev
FN:100,100,_ZN25HashMapTest_ClearMap_TestD0Ev
FN:100,100,_ZN25HashMapTest_ClearMap_TestD2Ev
FN:13,13,_ZN31HashMapTest_OverwriteValue_Test8TestBodyEv
FN:13,13,_ZN31HashMapTest_OverwriteValue_TestC2Ev
FN:13,13,_ZN31HashMapTest_OverwriteValue_TestD0Ev
FN:13,13,_ZN31HashMapTest_OverwriteValue_TestD2Ev
FN:21,21,_ZN26HashMapTest_RemoveKey_Test8TestBodyEv
FN:21,21,_ZN26HashMapTest_RemoveKey_TestC2Ev
FN:21,21,_ZN26HashMapTest_RemoveKey_TestD0Ev
FN:21,21,_ZN26HashMapTest_RemoveKey_TestD2Ev
FN:31,31,_ZN25HashMapTest_Contains_Test8TestBodyEv
FN:31,31,_ZN25HashMapTest_Contains_TestC2Ev
FN:31,31,_ZN25HashMapTest_Contains_TestD0Ev
FN:31,31,_ZN25HashMapTest_Contains_TestD2Ev
FN:39,39,_ZN29HashMapTest_EmptyAndSize_Test8TestBodyEv
FN:39,39,_ZN29HashMapTest_EmptyAndSize_TestC2Ev
FN:39,39,_ZN29HashMapTest_EmptyAndSize_TestD0Ev
FN:39,39,_ZN29HashMapTest_EmptyAndSize_TestD2Ev
FN:4,4,_ZN29HashMapTest_InsertAndGet_Test8TestBodyEv
FN:4,4,_ZN29HashMapTest_InsertAndGet_TestC2Ev
FN:4,4,_ZN29HashMapTest_InsertAndGet_TestD0Ev
FN:4,4,_ZN29HashMapTest_InsertAndGet_TestD2Ev
FN:47,47,_ZN32HashMapTest_RehashTriggered_Test8TestBodyEv
FN:47,47,_ZN32HashMapTest_RehashTriggered_TestC2Ev
FN:47,47,_ZN32HashMapTest_RehashTriggered_TestD0Ev
FN:47,47,_ZN32HashMapTest_RehashTriggered_TestD2Ev
FN:58,58,_ZN40HashMapTest_GetNonExistentKeyThrows_Test8TestBodyEv
FN:58,58,_ZN40HashMapTest_GetNonExistentKeyThrows_TestC2Ev
FN:58,58,_ZN40HashMapTest_GetNonExistentKeyThrows_TestD0Ev
FN:58,58,_ZN40HashMapTest_GetNonExistentKeyThrows_TestD2Ev
FN:64,64,_ZN30HashMapTest_ItemsFunction_Test8TestBodyEv
FN:64,64,_ZN30HashMapTest_ItemsFunction_TestC2Ev
FN:64,64,_ZN30HashMapTest_ItemsFunction_TestD0Ev
FN:64,64,_ZN30HashMapTest_ItemsFunction_TestD2Ev
FN:73,85,_ZN32HashMapTest_CopyConstructor_Test8TestBodyEv
FN:73,85,_ZN32HashMapTest_CopyConstructor_TestC2Ev
FN:73,85,_ZN32HashMapTest_CopyConstructor_TestD0Ev
FN:73,85,_ZN32HashMapTest_CopyConstructor_TestD2Ev
FN:87,87,_ZN35HashMapTest_AssignmentOperator_Test8TestBodyEv
FN:87,87,_ZN35HashMapTest_AssignmentOperator_TestC2Ev
FN:87,87,_ZN35HashMapTest_AssignmentOperator_TestD0Ev
FN:87,87,_ZN35HashMapTest_AssignmentOperator_TestD2Ev
FNDA:2,_ZN25HashMapTest_ClearMap_Test8TestBodyEv
FNDA:2,_ZN25HashMapTest_ClearMap_TestC2Ev
FNDA:2,_ZN25HashMapTest_ClearMap_TestD0Ev
FNDA:2,_ZN25HashMapTest_ClearMap_TestD2Ev
FNDA:2,_ZN31HashMapTest_OverwriteValue_Test8TestBodyEv
FNDA:2,_ZN31HashMapTest_OverwriteValue_TestC2Ev
FNDA:2,_ZN31HashMapTest_OverwriteValue_TestD0Ev
FNDA:2,_ZN31HashMapTest_OverwriteValue_TestD2Ev
FNDA:2,_ZN26HashMapTest_RemoveKey_Test8TestBodyEv
FNDA:2,_ZN26HashMapTest_RemoveKey_TestC2Ev
FNDA:2,_ZN26HashMapTest_RemoveKey_TestD0Ev
FNDA:2,_ZN26HashMapTest_RemoveKey_TestD2Ev
FNDA:2,_ZN25HashMapTest_Contains_Test8TestBodyEv
FNDA:2,_ZN25HashMapTest_Contains_TestC2Ev
FNDA:2,_ZN25HashMapTest_Contains_TestD0Ev
FNDA:2,_ZN25HashMapTest_Contains_TestD2Ev
FNDA:2,_ZN29HashMapTest_EmptyAndSize_Test8TestBodyEv
FNDA:2,_ZN29HashMapTest_EmptyAndSize_TestC2Ev
FNDA:2,_ZN29HashMapTest_EmptyAndSize_TestD0Ev
FNDA:2,_ZN29HashMapTest_EmptyAndSize_TestD2Ev
FNDA:2,_ZN29HashMapTest_InsertAndGet_Test8TestBodyEv
FNDA:2,_ZN29HashMapTest_InsertAndGet_TestC2Ev
FNDA:2,_ZN29HashMapTest_InsertAndGet_TestD0Ev
FNDA:2,_ZN29HashMapTest_InsertAndGet_TestD2Ev
FNDA:2,_ZN32HashMapTest_RehashTriggered_Test8TestBodyEv
FNDA:2,_ZN32HashMapTest_RehashTriggered_TestC2Ev
FNDA:2,_ZN32HashMapTest_RehashTriggered_TestD0Ev
FNDA:2,_ZN32HashMapTest_RehashTriggered_TestD2Ev
FNDA:2,_ZN40HashMapTest_GetNonExistentKeyThrows_Test8TestBodyEv
FNDA:2,_ZN40HashMapTest_GetNonExistentKeyThrows_TestC2Ev
FNDA:2,_ZN40HashMapTest_GetNonExistentKeyThrows_TestD0Ev
FNDA:2,_ZN40HashMapTest_GetNonExistentKeyThrows_TestD2Ev
FNDA:2,_ZN30HashMapTest_ItemsFunction_Test8TestBodyEv
FNDA:2,_ZN30HashMapTest_ItemsFunction_TestC2Ev
FNDA:2,_ZN30HashMapTest_ItemsFunction_TestD0Ev
FNDA:2,_ZN30HashMapTest_ItemsFunction_TestD2Ev
FNDA:2,_ZN32HashMapTest_CopyConstructor_Test8TestBodyEv
FNDA:2,_ZN32HashMapTest_CopyConstructor_TestC2Ev
FNDA:2,_ZN32HashMapTest_CopyConstructor_TestD0Ev
FNDA:2,_ZN32HashMapTest_CopyConstructor_TestD2Ev
FNDA:2,_ZN35HashMapTest_AssignmentOperator_Test8TestBodyEv
FNDA:2,_ZN35HashMapTest_AssignmentOperator_TestC2Ev
FNDA:2,_ZN35HashMapTest_AssignmentOperator_TestD0Ev
FNDA:2,_ZN35HashMapTest_AssignmentOperator_TestD2Ev
FNF:44
FNH:44
DA:4,8
DA:5,2
DA:6,4
DA:7,2
DA:9,2
DA:10,2
DA:11,2
DA:13,8
DA:14,2
DA:15,4
DA:16,2
DA:18,2
DA:19,2
DA:21,8
DA:22,2
DA:23,4
DA:24,2
DA:26,2
DA:27,2
DA:28,2
DA:29,2
DA:31,8
DA:32,2
DA:33,2
DA:35,2
DA:36,2
DA:37,2
DA:39,8
DA:40,2
DA:41,2
DA:43,2
DA:44,2
DA:45,2
DA:47,8
DA:48,2
DA:49,2
DA:50,2
DA:51,2
DA:53,2
DA:54,2
DA:55,2
DA:56,2
DA:58,8
DA:59,2
DA:60,2
DA:61,2
DA:62,2
DA:64,8
DA:65,2
DA:66,2
DA:67,2
DA:69,2
DA:70,2
DA:71,2
DA:73,8
DA:74,2
DA:75,4
DA:76,2
DA:78,2
DA:80,2
DA:81,2
DA:83,2
DA:84,2
DA:85,2
DA:87,8
DA:88,2
DA:89,2
DA:91,2
DA:92,2
DA:94,2
DA:96,2
DA:97,2
DA:98,2
DA:100,8
DA:101,2
DA:102,2
DA:103,2
DA:105,2
DA:106,2
DA:107,2
LF:80
LH:80
end_of_record
TN:
SF:/home/xxaqurm/proga/ProgrammingCourse/LaboratoryWork/Semester_3/Laboratory_3/C++/tests/stack_test.cpp
FN:10,10,_ZN32StackTest_PushIncreasesSize_Test8TestBodyEv
FN:10,10,_ZN32StackTest_PushIncreasesSize_TestC2Ev
FN:10,10,_ZN32StackTest_PushIncreasesSize_TestD0Ev
FN:10,10,_ZN32StackTest_PushIncreasesSize_TestD2Ev
FN:103,103,_ZN30StackTest_RepeatedPushPop_Test8TestBodyEv
FN:103,103,_ZN30StackTest_RepeatedPushPop_TestC2Ev
FN:103,103,_ZN30StackTest_RepeatedPushPop_TestD0Ev
FN:103,103,_ZN30StackTest_RepeatedPushPop_TestD2Ev
FN:21,21,_ZN31StackTest_PopDecreasesSize_Test8TestBodyEv
FN:21,21,_ZN31StackTest_PopDecreasesSize_TestC2Ev
FN:21,21,_ZN31StackTest_PopDecreasesSize_TestD0Ev
FN:21,21,_ZN31StackTest_PopDecreasesSize_TestD2Ev
FN:32,32,_ZN31StackTest_PopThrowsOnEmpty_Test8TestBodyEv
FN:32,32,_ZN31StackTest_PopThrowsOnEmpty_TestC2Ev
FN:32,32,_ZN31StackTest_PopThrowsOnEmpty_TestD0Ev
FN:32,32,_ZN31StackTest_PopThrowsOnEmpty_TestD2Ev
FN:37,37,_ZN35StackTest_TopReturnsLastPushed_Test8TestBodyEv
FN:37,37,_ZN35StackTest_TopReturnsLastPushed_TestC2Ev
FN:37,37,_ZN35StackTest_TopReturnsLastPushed_TestD0Ev
FN:37,37,_ZN35StackTest_TopReturnsLastPushed_TestD2Ev
FN:4,4,_ZN30StackTest_NewStackIsEmpty_Test8TestBodyEv
FN:4,4,_ZN30StackTest_NewStackIsEmpty_TestC2Ev
FN:4,4,_ZN30StackTest_NewStackIsEmpty_TestD0Ev
FN:4,4,_ZN30StackTest_NewStackIsEmpty_TestD2Ev
FN:45,45,_ZN31StackTest_TopThrowsOnEmpty_Test8TestBodyEv
FN:45,45,_ZN31StackTest_TopThrowsOnEmpty_TestC2Ev
FN:45,45,_ZN31StackTest_TopThrowsOnEmpty_TestD0Ev
FN:45,45,_ZN31StackTest_TopThrowsOnEmpty_TestD2Ev
FN:50,50,_ZN33StackTest_EmptyReflectsState_Test8TestBodyEv
FN:50,50,_ZN33StackTest_EmptyReflectsState_TestC2Ev
FN:50,50,_ZN33StackTest_EmptyReflectsState_TestD0Ev
FN:50,50,_ZN33StackTest_EmptyReflectsState_TestD2Ev
FN:59,59,_ZN35StackTest_SizeUpdatesCorrectly_Test8TestBodyEv
FN:59,59,_ZN35StackTest_SizeUpdatesCorrectly_TestC2Ev
FN:59,59,_ZN35StackTest_SizeUpdatesCorrectly_TestD0Ev
FN:59,59,_ZN35StackTest_SizeUpdatesCorrectly_TestD2Ev
FN:72,83,_ZN32StackTest_ClearEmptiesStack_Test8TestBodyEv
FN:72,83,_ZN32StackTest_ClearEmptiesStack_TestC2Ev
FN:72,83,_ZN32StackTest_ClearEmptiesStack_TestD0Ev
FN:72,83,_ZN32StackTest_ClearEmptiesStack_TestD2Ev
FN:85,85,_ZN30StackTest_PushPopSequence_Test8TestBodyEv
FN:85,85,_ZN30StackTest_PushPopSequence_TestC2Ev
FN:85,85,_ZN30StackTest_PushPopSequence_TestD0Ev
FN:85,85,_ZN30StackTest_PushPopSequence_TestD2Ev
FNDA:2,_ZN32StackTest_PushIncreasesSize_Test8TestBodyEv
FNDA:2,_ZN32StackTest_PushIncreasesSize_TestC2Ev
FNDA:2,_ZN32StackTest_PushIncreasesSize_TestD0Ev
FNDA:2,_ZN32StackTest_PushIncreasesSize_TestD2Ev
FNDA:2,_ZN30StackTest_RepeatedPushPop_Test8TestBodyEv
FNDA:2,_ZN30StackTest_RepeatedPushPop_TestC2Ev
FNDA:2,_ZN30StackTest_RepeatedPushPop_TestD0Ev
FNDA:2,_ZN30StackTest_RepeatedPushPop_TestD2Ev
FNDA:2,_ZN31StackTest_PopDecreasesSize_Test8TestBodyEv
FNDA:2,_ZN31StackTest_PopDecreasesSize_TestC2Ev
FNDA:2,_ZN31StackTest_PopDecreasesSize_TestD0Ev
FNDA:2,_ZN31StackTest_PopDecreasesSize_TestD2Ev
FNDA:2,_ZN31StackTest_PopThrowsOnEmpty_Test8TestBodyEv
FNDA:2,_ZN31StackTest_PopThrowsOnEmpty_TestC2Ev
FNDA:2,_ZN31StackTest_PopThrowsOnEmpty_TestD0Ev
FNDA:2,_ZN31StackTest_PopThrowsOnEmpty_TestD2Ev
FNDA:2,_ZN35StackTest_TopReturnsLastPushed_Test8TestBodyEv
FNDA:2,_ZN35StackTest_TopReturnsLastPushed_TestC2Ev
FNDA:2,_ZN35StackTest_TopReturnsLastPushed_TestD0Ev
FNDA:2,_ZN35StackTest_TopReturnsLastPushed_TestD2Ev
FNDA:2,_ZN30StackTest_NewStackIsEmpty_Test8TestBodyEv
FNDA:2,_ZN30StackTest_NewStackIsEmpty_TestC2Ev
FNDA:2,_ZN30StackTest_NewStackIsEmpty_TestD0Ev
FNDA:2,_ZN30StackTest_NewStackIsEmpty_TestD2Ev
FNDA:2,_ZN31StackTest_TopThrowsOnEmpty_Test8TestBodyEv
FNDA:2,_ZN31StackTest_TopThrowsOnEmpty_TestC2Ev
FNDA:2,_ZN31StackTest_TopThrowsOnEmpty_TestD0Ev
FNDA:2,_ZN31StackTest_TopThrowsOnEmpty_TestD2Ev
FNDA:2,_ZN33StackTest_EmptyReflectsState_Test8TestBodyEv
FNDA:2,_ZN33StackTest_EmptyReflectsState_TestC2Ev
FNDA:2,_ZN33StackTest_EmptyReflectsState_TestD0Ev
FNDA:2,_ZN33StackTest_EmptyReflectsState_TestD2Ev
FNDA:2,_ZN35StackTest_SizeUpdatesCorrectly_Test8TestBodyEv
FNDA:2,_ZN35StackTest_SizeUpdatesCorrectly_TestC2Ev
FNDA:2,_ZN35StackTest_SizeUpdatesCorrectly_TestD0Ev
FNDA:2,_ZN35StackTest_SizeUpdatesCorrectly_TestD2Ev
FNDA:2,_ZN32StackTest_ClearEmptiesStack_Test8TestBodyEv
FNDA:2,_ZN32StackTest_ClearEmptiesStack_TestC2Ev
FNDA:2,_ZN32StackTest_ClearEmptiesStack_TestD0Ev
FNDA:2,_ZN32StackTest_ClearEmptiesStack_TestD2Ev
FNDA:2,_ZN30StackTest_PushPopSequence_Test8TestBodyEv
FNDA:2,_ZN30StackTest_PushPopSequence_TestC2Ev
FNDA:2,_ZN30StackTest_PushPopSequence_TestD0Ev
FNDA:2,_ZN30StackTest_PushPopSequence_TestD2Ev
FNF:44
FNH:44
DA:4,8
DA:5,2
DA:6,2
DA:7,2
DA:8,2
DA:10,8
DA:11,2
DA:12,2
DA:13,2
DA:14,2
DA:16,2
DA:17,2
DA:18,2
DA:19,2
DA:21,8
DA:22,2
DA:23,2
DA:24,2
DA:25,2
DA:26,2
DA:27,2
DA:28,2
DA:29,2
DA:30,2
DA:32,8
DA:33,2
DA:34,2
DA:35,2
DA:37,8
DA:38,2
DA:39,2
DA:40,2
DA:41,2
DA:42,2
DA:43,2
DA:45,8
DA:46,2
DA:47,2
DA:48,2
DA:50,8
DA:51,2
DA:52,2
DA:53,2
DA:54,2
DA:55,2
DA:56,2
DA:57,2
DA:59,8
DA:60,2
DA:61,2
DA:62,2
DA:63,2
DA:64,2
DA:65,2
DA:66,2
DA:67,2
DA:68,2
DA:69,2
DA:70,2
DA:72,8
DA:73,2
DA:74,2
DA:75,2
DA:76,2
DA:77,2
DA:78,2
DA:79,2
DA:80,2
DA:81,2
DA:82,2
DA:83,2
DA:85,8
DA:86,2
DA:87,2
DA:88,2
DA:89,2
DA:91,2
DA:92,2
DA:93,2
DA:94,2
DA:95,2
DA:96,2
DA:97,2
DA:98,2
DA:99,2
DA:100,2
DA:101,2
DA:103,8
DA:104,2
DA:105,202
DA:106,200
DA:107,200
DA:109,2
DA:111,202
DA:112,200
DA:113,200
DA:115,2
DA:116,2
LF:98
LH:98
end_of_record
TN:
SF:/usr/include/c++/13/bits/alloc_traits.h
FNF:0
FNH:0
DA:482,32
DA:517,32
DA:538,6
DA:542,6
DA:562,2
DA:574,36
DA:588,0
DA:755,2
DA:759,2
DA:948,32
DA:949,32
LF:11
LH:10
end_of_record
TN:
SF:/usr/include/c++/13/bits/allocator.h
FNF:0
FNH:0
DA:163,80
DA:168,60
DA:184,108
LF:3
LH:3
end_of_record
TN:
SF:/usr/include/c++/13/bits/basic_string.h
FN:3528,3541,_ZSt12__str_concatINSt7__cxx1112basic_stringIcSt11char_traitsIcESaIcEEEET_PKNS6_10value_typeENS6_9size_typeES9_SA_RKNS6_14allocator_typeE
FN:3571,3579,_ZStplIcSt11char_traitsIcESaIcEENSt7__cxx1112basic_stringIT_T0_T1_EEPKS5_RKS8_
FN:3710,3716,_ZSteqIcSt11char_traitsIcESaIcEEbRKNSt7__cxx1112basic_stringIT_T0_T1_EESA_
FN:3727,3732,_ZSteqIcSt11char_traitsIcESaIcEEbRKNSt7__cxx1112basic_stringIT_T0_T1_EEPKS5_
FN:641,650,_ZNSt7__cxx1112basic_stringIcSt11char_traitsIcESaIcEEC2IS3_EEPKcRKS3_
FNDA:0,_ZSt12__str_concatINSt7__cxx1112basic_stringIcSt11char_traitsIcESaIcEEEET_PKNS6_10value_typeENS6_9size_typeES9_SA_RKNS6_14allocator_typeE
FNDA:0,_ZStplIcSt11char_traitsIcESaIcEENSt7__cxx1112basic_stringIT_T0_T1_EEPKS5_RKS8_
FNDA:12,_ZSteqIcSt11char_traitsIcESaIcEEbRKNSt7__cxx1112basic_stringIT_T0_T1_EESA_
FNDA:16,_ZSteqIcSt11char_traitsIcESaIcEEbRKNSt7__cxx1112basic_stringIT_T0_T1_EEPKS5_
FNDA:312,_ZNSt7__cxx1112basic_stringIcSt11char_traitsIcESaIcEEC2IS3_EEPKcRKS3_
FNF:5
FNH:3
DA:355,50
DA:641,312
DA:642,312
DA:645,312
DA:646,0
DA:648,312
DA:649,312
DA:650,312
DA:3528,0
DA:3536,0
DA:3537,0
DA:3538,0
DA:3539,0
DA:3540,0
DA:3541,0
DA:3571,0
DA:3578,0
DA:3710,12
DA:3714,12
DA:3715,12
DA:3727,16
DA:3730,16
DA:3731,16
LF:23
LH:13
end_of_record
TN:
SF:/usr/include/c++/13/bits/basic_string.tcc
FN:221,252,_ZNSt7__cxx1112basic_stringIcSt11char_traitsIcESaIcEE12_M_constructIPKcEEvT_S8_St20forward_iterator_tag
FN:221,252,_ZNSt7__cxx1112basic_stringIcSt11char_traitsIcESaIcEE12_M_constructIPcEEvT_S7_St20forward_iterator_tag
FN:239,239,_ZZNSt7__cxx1112basic_stringIcSt11char_traitsIcESaIcEE12_M_constructIPKcEEvT_S8_St20forward_iterator_tagEN6_GuardC2EPS4_
FN:239,239,_ZZNSt7__cxx1112basic_stringIcSt11char_traitsIcESaIcEE12_M_constructIPcEEvT_S7_St20forward_iterator_tagEN6_GuardC2EPS4_
FN:242,242,_ZZNSt7__cxx1112basic_stringIcSt11char_traitsIcESaIcEE12_M_constructIPKcEEvT_S8_St20forward_iterator_tagEN6_GuardD2Ev
FN:242,242,_ZZNSt7__cxx1112basic_stringIcSt11char_traitsIcESaIcEE12_M_constructIPcEEvT_S7_St20forward_iterator_tagEN6_GuardD2Ev
FNDA:312,_ZNSt7__cxx1112basic_stringIcSt11char_traitsIcESaIcEE12_M_constructIPKcEEvT_S8_St20forward_iterator_tag
FNDA:0,_ZNSt7__cxx1112basic_stringIcSt11char_traitsIcESaIcEE12_M_constructIPcEEvT_S7_St20forward_iterator_tag
FNDA:312,_ZZNSt7__cxx1112basic_stringIcSt11char_traitsIcESaIcEE12_M_constructIPKcEEvT_S8_St20forward_iterator_tagEN6_GuardC2EPS4_
FNDA:0,_ZZNSt7__cxx1112basic_stringIcSt11char_traitsIcESaIcEE12_M_constructIPcEEvT_S7_St20forward_iterator_tagEN6_GuardC2EPS4_
FNDA:312,_ZZNSt7__cxx1112basic_stringIcSt11char_traitsIcESaIcEE12_M_constructIPKcEEvT_S8_St20forward_iterator_tagEN6_GuardD2Ev
FNDA:0,_ZZNSt7__cxx1112basic_stringIcSt11char_traitsIcESaIcEE12_M_constructIPcEEvT_S7_St20forward_iterator_tagEN6_GuardD2Ev
FNF:6
FNH:3
DA:221,312
DA:225,312
DA:227,312
DA:229,262
DA:230,262
DA:239,312
DA:242,312
DA:245,312
DA:247,312
DA:249,312
DA:251,312
DA:252,312
LF:12
LH:12
end_of_record
TN:
SF:/usr/include/c++/13/bits/char_traits.h
FN:136,137,_ZN9__gnu_cxx11char_traitsIcE2eqERKcS3_
FN:199,206,_ZN9__gnu_cxx11char_traitsIcE6lengthEPKc
FN:366,371,_ZNSt11char_traitsIcE2ltERKcS2_
FN:374,390,_ZNSt11char_traitsIcE7compareEPKcS2_m
FN:393,400,_ZNSt11char_traitsIcE6lengthEPKc
FN:427,436,_ZNSt11char_traitsIcE4copyEPcPKcm
FNDA:0,_ZN9__gnu_cxx11char_traitsIcE2eqERKcS3_
FNDA:0,_ZN9__gnu_cxx11char_traitsIcE6lengthEPKc
FNDA:0,_ZNSt11char_traitsIcE2ltERKcS2_
FNDA:28,_ZNSt11char_traitsIcE7compareEPKcS2_m
FNDA:328,_ZNSt11char_traitsIcE6lengthEPKc
FNDA:0,_ZNSt11char_traitsIcE4copyEPcPKcm
FNF:6
FNH:2
DA:136,0
DA:137,0
DA:199,0
DA:202,0
DA:203,0
DA:204,0
DA:205,0
DA:366,0
DA:369,0
DA:370,0
DA:374,28
DA:376,28
DA:377,0
DA:379,28
DA:381,0
DA:382,0
DA:383,0
DA:384,0
DA:385,0
DA:386,0
DA:389,28
DA:393,328
DA:396,328
DA:397,0
DA:399,328
DA:427,0
DA:429,0
DA:430,0
DA:435,0
LF:29
LH:7
end_of_record
TN:
SF:/usr/include/c++/13/bits/functional_hash.h
FN:154,154,_ZNKSt4hashIiEclEi
FNDA:74,_ZNKSt4hashIiEclEi
FNF:1
FNH:1
DA:154,74
LF:1
LH:1
end_of_record
TN:
SF:/usr/include/c++/13/bits/move.h
FN:51,52,_ZSt11__addressofISt4pairIiiEEPT_RS2_
FN:70,71,_ZSt7forwardIRiEOT_RNSt16remove_referenceIS1_E4typeE
FN:70,71,_ZSt7forwardISt14default_deleteINSt7__cxx1112basic_stringIcSt11char_traitsIcESaIcEEEEEOT_RNSt16remove_referenceIS8_E4typeE
FN:70,71,_ZSt7forwardISt4pairIiiEEOT_RNSt16remove_referenceIS2_E4typeE
FN:97,98,_ZSt4moveIRPNSt7__cxx1112basic_stringIcSt11char_traitsIcESaIcEEEEONSt16remove_referenceIT_E4typeEOS9_
FN:97,98,_ZSt4moveIRPNSt7__cxx1118basic_stringstreamIcSt11char_traitsIcESaIcEEEEONSt16remove_referenceIT_E4typeEOS9_
FN:97,98,_ZSt4moveIRSaIPN23SeparateChainingHashMapIiNSt7__cxx1112basic_stringIcSt11char_traitsIcESaIcEEEE4NodeEEEONSt16remove_referenceIT_E4typeEOSD_
FN:97,98,_ZSt4moveIRSaIPN23SeparateChainingHashMapIiiE4NodeEEEONSt16remove_referenceIT_E4typeEOS7_
FN:97,98,_ZSt4moveIRSaIcEEONSt16remove_referenceIT_E4typeEOS3_
FN:97,98,_ZSt4moveIRSt4pairIiiEEONSt16remove_referenceIT_E4typeEOS4_
FN:97,98,_ZSt4moveIRSt6vectorIPN23SeparateChainingHashMapIiNSt7__cxx1112basic_stringIcSt11char_traitsIcESaIcEEEE4NodeESaISA_EEEONSt16remove_referenceIT_E4typeEOSF_
FN:97,98,_ZSt4moveIRSt6vectorIPN23SeparateChainingHashMapIiiE4NodeESaIS4_EEEONSt16remove_referenceIT_E4typeEOS9_
FNDA:6,_ZSt11__addressofISt4pairIiiEEPT_RS2_
FNDA:8,_ZSt7forwardIRiEOT_RNSt16remove_referenceIS1_E4typeE
FNDA:0,_ZSt7forwardISt14default_deleteINSt7__cxx1112basic_stringIcSt11char_traitsIcESaIcEEEEEOT_RNSt16remove_referenceIS8_E4typeE
FNDA:20,_ZSt7forwardISt4pairIiiEEOT_RNSt16remove_referenceIS2_E4typeE
FNDA:0,_ZSt4moveIRPNSt7__cxx1112basic_stringIcSt11char_traitsIcESaIcEEEEONSt16remove_referenceIT_E4typeEOS9_
FNDA:0,_ZSt4moveIRPNSt7__cxx1118basic_stringstreamIcSt11char_traitsIcESaIcEEEEONSt16remove_referenceIT_E4typeEOS9_
FNDA:0,_ZSt4moveIRSaIPN23SeparateChainingHashMapIiNSt7__cxx1112basic_stringIcSt11char_traitsIcESaIcEEEE4NodeEEEONSt16remove_referenceIT_E4typeEOSD_
FNDA:2,_ZSt4moveIRSaIPN23SeparateChainingHashMapIiiE4NodeEEEONSt16remove_referenceIT_E4typeEOS7_
FNDA:0,_ZSt4moveIRSaIcEEONSt16remove_referenceIT_E4typeEOS3_
FNDA:6,_ZSt4moveIRSt4pairIiiEEONSt16remove_referenceIT_E4typeEOS4_
FNDA:0,_ZSt4moveIRSt6vectorIPN23SeparateChainingHashMapIiNSt7__cxx1112basic_stringIcSt11char_traitsIcESaIcEEEE4NodeESaISA_EEEONSt16remove_referenceIT_E4typeEOSF_
FNDA:4,_ZSt4moveIRSt6vectorIPN23SeparateChainingHashMapIiiE4NodeESaIS4_EEEONSt16remove_referenceIT_E4typeEOS9_
FNF:12
FNH:6
DA:51,6
DA:52,6
DA:70,28
DA:71,28
DA:97,12
DA:98,12
LF:6
LH:6
end_of_record
TN:
SF:/usr/include/c++/13/bits/new_allocator.h
FN:104,104,_ZNSt15__new_allocatorIPN23SeparateChainingHashMapIiNSt7__cxx1112basic_stringIcSt11char_traitsIcESaIcEEEE4NodeEED2Ev
FN:104,104,_ZNSt15__new_allocatorIPN23SeparateChainingHashMapIiiE4NodeEED2Ev
FN:104,104,_ZNSt15__new_allocatorISt4pairIiiEED2Ev
FN:104,104,_ZNSt15__new_allocatorIcED2Ev
FN:126,152,_ZNSt15__new_allocatorIPN23SeparateChainingHashMapIiNSt7__cxx1112basic_stringIcSt11char_traitsIcESaIcEEEE4NodeEE8allocateEmPKv
FN:126,152,_ZNSt15__new_allocatorIPN23SeparateChainingHashMapIiiE4NodeEE8allocateEmPKv
FN:126,152,_ZNSt15__new_allocatorISt4pairIiiEE8allocateEmPKv
FN:156,173,_ZNSt15__new_allocatorIPN23SeparateChainingHashMapIiNSt7__cxx1112basic_stringIcSt11char_traitsIcESaIcEEEE4NodeEE10deallocateEPS9_m
FN:156,173,_ZNSt15__new_allocatorIPN23SeparateChainingHashMapIiiE4NodeEE10deallocateEPS3_m
FN:156,173,_ZNSt15__new_allocatorISt4pairIiiEE10deallocateEPS1_m
FNDA:54,_ZNSt15__new_allocatorIPN23SeparateChainingHashMapIiNSt7__cxx1112basic_stringIcSt11char_traitsIcESaIcEEEE4NodeEED2Ev
FNDA:34,_ZNSt15__new_allocatorIPN23SeparateChainingHashMapIiiE4NodeEED2Ev
FNDA:2,_ZNSt15__new_allocatorISt4pairIiiEED2Ev
FNDA:312,_ZNSt15__new_allocatorIcED2Ev
FNDA:18,_ZNSt15__new_allocatorIPN23SeparateChainingHashMapIiNSt7__cxx1112basic_stringIcSt11char_traitsIcESaIcEEEE4NodeEE8allocateEmPKv
FNDA:10,_ZNSt15__new_allocatorIPN23SeparateChainingHashMapIiiE4NodeEE8allocateEmPKv
FNDA:4,_ZNSt15__new_allocatorISt4pairIiiEE8allocateEmPKv
FNDA:18,_ZNSt15__new_allocatorIPN23SeparateChainingHashMapIiNSt7__cxx1112basic_stringIcSt11char_traitsIcESaIcEEEE4NodeEE10deallocateEPS9_m
FNDA:10,_ZNSt15__new_allocatorIPN23SeparateChainingHashMapIiiE4NodeEE10deallocateEPS3_m
FNDA:4,_ZNSt15__new_allocatorISt4pairIiiEE10deallocateEPS1_m
FNF:10
FNH:10
DA:88,80
DA:92,60
DA:104,402
DA:126,32
DA:134,32
DA:138,0
DA:139,0
DA:140,0
DA:151,32
DA:156,32
DA:172,32
DA:183,36
DA:191,6
DA:198,2
DA:233,68
LF:15
LH:12
end_of_record
TN:
SF:/usr/include/c++/13/bits/stl_algobase.h
FN:1000,1008,_ZSt4fillIN9__gnu_cxx17__normal_iteratorIPPN23SeparateChainingHashMapIiNSt7__cxx1112basic_stringIcSt11char_traitsIcESaIcEEEE4NodeESt6vectorISB_SaISB_EEEESB_EvT_SH_RKT0_
FN:1000,1008,_ZSt4fillIN9__gnu_cxx17__normal_iteratorIPPN23SeparateChainingHashMapIiiE4NodeESt6vectorIS5_SaIS5_EEEES5_EvT_SB_RKT0_
FN:1018,1018,_ZSt17__size_to_integerm
FN:1117,1130,_ZSt10__fill_n_aIPPN23SeparateChainingHashMapIiNSt7__cxx1112basic_stringIcSt11char_traitsIcESaIcEEEE4NodeEmS9_ET_SB_T0_RKT1_St26random_access_iterator_tag
FN:1117,1130,_ZSt10__fill_n_aIPPN23SeparateChainingHashMapIiiE4NodeEmS3_ET_S5_T0_RKT1_St26random_access_iterator_tag
FN:1152,1159,_ZSt6fill_nIPPN23SeparateChainingHashMapIiNSt7__cxx1112basic_stringIcSt11char_traitsIcESaIcEEEE4NodeEmS9_ET_SB_T0_RKT1_
FN:1152,1159,_ZSt6fill_nIPPN23SeparateChainingHashMapIiiE4NodeEmS3_ET_S5_T0_RKT1_
FN:233,241,_ZSt3minImERKT_S2_S2_
FN:257,265,_ZSt3maxIiERKT_S2_S2_
FN:257,265,_ZSt3maxImERKT_S2_S2_
FN:316,318,_ZSt12__niter_baseIPSt4pairIiiEET_S3_
FN:926,932,_ZSt9__fill_a1IPPN23SeparateChainingHashMapIiNSt7__cxx1112basic_stringIcSt11char_traitsIcESaIcEEEE4NodeES9_EN9__gnu_cxx11__enable_ifIXsrSt11__is_scalarIT0_E7__valueEvE6__typeET_SI_RKSE_
FN:926,932,_ZSt9__fill_a1IPPN23SeparateChainingHashMapIiiE4NodeES3_EN9__gnu_cxx11__enable_ifIXsrSt11__is_scalarIT0_E7__valueEvE6__typeET_SC_RKS8_
FN:957,960,_ZSt9__fill_a1IPPN23SeparateChainingHashMapIiNSt7__cxx1112basic_stringIcSt11char_traitsIcESaIcEEEE4NodeESt6vectorIS9_SaIS9_EES9_EvN9__gnu_cxx17__normal_iteratorIT_T0_EESI_RKT1_
FN:957,960,_ZSt9__fill_a1IPPN23SeparateChainingHashMapIiiE4NodeESt6vectorIS3_SaIS3_EES3_EvN9__gnu_cxx17__normal_iteratorIT_T0_EESC_RKT1_
FN:976,977,_ZSt8__fill_aIN9__gnu_cxx17__normal_iteratorIPPN23SeparateChainingHashMapIiNSt7__cxx1112basic_stringIcSt11char_traitsIcESaIcEEEE4NodeESt6vectorISB_SaISB_EEEESB_EvT_SH_RKT0_
FN:976,977,_ZSt8__fill_aIN9__gnu_cxx17__normal_iteratorIPPN23SeparateChainingHashMapIiiE4NodeESt6vectorIS5_SaIS5_EEEES5_EvT_SB_RKT0_
FN:976,977,_ZSt8__fill_aIPPN23SeparateChainingHashMapIiNSt7__cxx1112basic_stringIcSt11char_traitsIcESaIcEEEE4NodeES9_EvT_SB_RKT0_
FN:976,977,_ZSt8__fill_aIPPN23SeparateChainingHashMapIiiE4NodeES3_EvT_S5_RKT0_
FNDA:0,_ZSt4fillIN9__gnu_cxx17__normal_iteratorIPPN23SeparateChainingHashMapIiNSt7__cxx1112basic_stringIcSt11char_traitsIcESaIcEEEE4NodeESt6vectorISB_SaISB_EEEESB_EvT_SH_RKT0_
FNDA:0,_ZSt4fillIN9__gnu_cxx17__normal_iteratorIPPN23SeparateChainingHashMapIiiE4NodeESt6vectorIS5_SaIS5_EEEES5_EvT_SB_RKT0_
FNDA:60,_ZSt17__size_to_integerm
FNDA:40,_ZSt10__fill_n_aIPPN23SeparateChainingHashMapIiNSt7__cxx1112basic_stringIcSt11char_traitsIcESaIcEEEE4NodeEmS9_ET_SB_T0_RKT1_St26random_access_iterator_tag
FNDA:20,_ZSt10__fill_n_aIPPN23SeparateChainingHashMapIiiE4NodeEmS3_ET_S5_T0_RKT1_St26random_access_iterator_tag
FNDA:40,_ZSt6fill_nIPPN23SeparateChainingHashMapIiNSt7__cxx1112basic_stringIcSt11char_traitsIcESaIcEEEE4NodeEmS9_ET_SB_T0_RKT1_
FNDA:20,_ZSt6fill_nIPPN23SeparateChainingHashMapIiiE4NodeEmS3_ET_S5_T0_RKT1_
FNDA:36,_ZSt3minImERKT_S2_S2_
FNDA:70,_ZSt3maxIiERKT_S2_S2_
FNDA:4,_ZSt3maxImERKT_S2_S2_
FNDA:24,_ZSt12__niter_baseIPSt4pairIiiEET_S3_
FNDA:40,_ZSt9__fill_a1IPPN23SeparateChainingHashMapIiNSt7__cxx1112basic_stringIcSt11char_traitsIcESaIcEEEE4NodeES9_EN9__gnu_cxx11__enable_ifIXsrSt11__is_scalarIT0_E7__valueEvE6__typeET_SI_RKSE_
FNDA:20,_ZSt9__fill_a1IPPN23SeparateChainingHashMapIiiE4NodeES3_EN9__gnu_cxx11__enable_ifIXsrSt11__is_scalarIT0_E7__valueEvE6__typeET_SC_RKS8_
FNDA:0,_ZSt9__fill_a1IPPN23SeparateChainingHashMapIiNSt7__cxx1112basic_stringIcSt11char_traitsIcESaIcEEEE4NodeESt6vectorIS9_SaIS9_EES9_EvN9__gnu_cxx17__normal_iteratorIT_T0_EESI_RKT1_
FNDA:0,_ZSt9__fill_a1IPPN23SeparateChainingHashMapIiiE4NodeESt6vectorIS3_SaIS3_EES3_EvN9__gnu_cxx17__normal_iteratorIT_T0_EESC_RKT1_
FNDA:0,_ZSt8__fill_aIN9__gnu_cxx17__normal_iteratorIPPN23SeparateChainingHashMapIiNSt7__cxx1112basic_stringIcSt11char_traitsIcESaIcEEEE4NodeESt6vectorISB_SaISB_EEEESB_EvT_SH_RKT0_
FNDA:0,_ZSt8__fill_aIN9__gnu_cxx17__normal_iteratorIPPN23SeparateChainingHashMapIiiE4NodeESt6vectorIS5_SaIS5_EEEES5_EvT_SB_RKT0_
FNDA:40,_ZSt8__fill_aIPPN23SeparateChainingHashMapIiNSt7__cxx1112basic_stringIcSt11char_traitsIcESaIcEEEE4NodeES9_EvT_SB_RKT0_
FNDA:20,_ZSt8__fill_aIPPN23SeparateChainingHashMapIiiE4NodeES3_EvT_S5_RKT0_
FNF:19
FNH:13
DA:233,36
DA:238,36
DA:239,0
DA:240,36
DA:257,74
DA:262,74
DA:263,20
DA:264,54
DA:316,24
DA:318,24
DA:926,60
DA:929,60
DA:930,688
DA:931,628
DA:932,60
DA:957,0
DA:960,0
DA:976,60
DA:977,60
DA:1000,0
DA:1007,0
DA:1008,0
DA:1018,60
DA:1117,60
DA:1123,60
DA:1124,0
DA:1128,60
DA:1129,60
DA:1152,60
DA:1157,60
DA:1158,120
LF:31
LH:24
end_of_record
TN:
SF:/usr/include/c++/13/bits/stl_construct.h
FN:172,172,_ZNSt12_Destroy_auxILb1EE9__destroyIPPN23SeparateChainingHashMapIiNSt7__cxx1112basic_stringIcSt11char_traitsIcESaIcEEEE4NodeEEEvT_SD_
FN:172,172,_ZNSt12_Destroy_auxILb1EE9__destroyIPPN23SeparateChainingHashMapIiiE4NodeEEEvT_S7_
FN:172,172,_ZNSt12_Destroy_auxILb1EE9__destroyIPSt4pairIiiEEEvT_S5_
FN:182,197,_ZSt8_DestroyIPPN23SeparateChainingHashMapIiNSt7__cxx1112basic_stringIcSt11char_traitsIcESaIcEEEE4NodeEEvT_SB_
FN:182,197,_ZSt8_DestroyIPPN23SeparateChainingHashMapIiiE4NodeEEvT_S5_
FN:182,197,_ZSt8_DestroyIPSt4pairIiiEEvT_S3_
FNDA:18,_ZNSt12_Destroy_auxILb1EE9__destroyIPPN23SeparateChainingHashMapIiNSt7__cxx1112basic_stringIcSt11char_traitsIcESaIcEEEE4NodeEEEvT_SD_
FNDA:12,_ZNSt12_Destroy_auxILb1EE9__destroyIPPN23SeparateChainingHashMapIiiE4NodeEEEvT_S7_
FNDA:2,_ZNSt12_Destroy_auxILb1EE9__destroyIPSt4pairIiiEEEvT_S5_
FNDA:18,_ZSt8_DestroyIPPN23SeparateChainingHashMapIiNSt7__cxx1112basic_stringIcSt11char_traitsIcESaIcEEEE4NodeEEvT_SB_
FNDA:12,_ZSt8_DestroyIPPN23SeparateChainingHashMapIiiE4NodeEEvT_S5_
FNDA:2,_ZSt8_DestroyIPSt4pairIiiEEvT_S3_
FNF:6
FNH:6
DA:172,32
DA:182,32
DA:196,32
DA:197,32
LF:4
LH:4
end_of_record
TN:
SF:/usr/include/c++/13/bits/stl_iterator.h
FN:1076,1077,_ZN9__gnu_cxx17__normal_iteratorIPPN23SeparateChainingHashMapIiNSt7__cxx1112basic_stringIcSt11char_traitsIcESaIcEEEE4NodeESt6vectorISA_SaISA_EEEC2ERKSB_
FN:1076,1077,_ZN9__gnu_cxx17__normal_iteratorIPPN23SeparateChainingHashMapIiiE4NodeESt6vectorIS4_SaIS4_EEEC2ERKS5_
FN:1076,1077,_ZN9__gnu_cxx17__normal_iteratorIPSt4pairIiiESt6vectorIS2_SaIS2_EEEC2ERKS3_
FN:1099,1100,_ZNK9__gnu_cxx17__normal_iteratorIPKcNSt7__cxx1112basic_stringIcSt11char_traitsIcESaIcEEEEdeEv
FN:1099,1100,_ZNK9__gnu_cxx17__normal_iteratorIPPN23SeparateChainingHashMapIiNSt7__cxx1112basic_stringIcSt11char_traitsIcESaIcEEEE4NodeESt6vectorISA_SaISA_EEEdeEv
FN:1099,1100,_ZNK9__gnu_cxx17__normal_iteratorIPPN23SeparateChainingHashMapIiiE4NodeESt6vectorIS4_SaIS4_EEEdeEv
FN:1099,1100,_ZNK9__gnu_cxx17__normal_iteratorIPSt4pairIiiESt6vectorIS2_SaIS2_EEEdeEv
FN:1109,1113,_ZN9__gnu_cxx17__normal_iteratorIPKcNSt7__cxx1112basic_stringIcSt11char_traitsIcESaIcEEEEppEv
FN:1109,1113,_ZN9__gnu_cxx17__normal_iteratorIPPN23SeparateChainingHashMapIiNSt7__cxx1112basic_stringIcSt11char_traitsIcESaIcEEEE4NodeESt6vectorISA_SaISA_EEEppEv
FN:1109,1113,_ZN9__gnu_cxx17__normal_iteratorIPPN23SeparateChainingHashMapIiiE4NodeESt6vectorIS4_SaIS4_EEEppEv
FN:1157,1158,_ZNK9__gnu_cxx17__normal_iteratorIPSt4pairIiiESt6vectorIS2_SaIS2_EEEmiEl
FN:1162,1163,_ZNK9__gnu_cxx17__normal_iteratorIPKcNSt7__cxx1112basic_stringIcSt11char_traitsIcESaIcEEEE4baseEv
FN:1162,1163,_ZNK9__gnu_cxx17__normal_iteratorIPPN23SeparateChainingHashMapIiNSt7__cxx1112basic_stringIcSt11char_traitsIcESaIcEEEE4NodeESt6vectorISA_SaISA_EEE4baseEv
FN:1162,1163,_ZNK9__gnu_cxx17__normal_iteratorIPPN23SeparateChainingHashMapIiiE4NodeESt6vectorIS4_SaIS4_EEE4baseEv
FN:1162,1163,_ZNK9__gnu_cxx17__normal_iteratorIPSt4pairIiiESt6vectorIS2_SaIS2_EEE4baseEv
FN:1241,1244,_ZN9__gnu_cxxneIPKcNSt7__cxx1112basic_stringIcSt11char_traitsIcESaIcEEEEEbRKNS_17__normal_iteratorIT_T0_EESE_
FN:1241,1244,_ZN9__gnu_cxxneIPPN23SeparateChainingHashMapIiNSt7__cxx1112basic_stringIcSt11char_traitsIcESaIcEEEE4NodeESt6vectorISA_SaISA_EEEEbRKNS_17__normal_iteratorIT_T0_EESK_
FN:1241,1244,_ZN9__gnu_cxxneIPPN23SeparateChainingHashMapIiiE4NodeESt6vectorIS4_SaIS4_EEEEbRKNS_17__normal_iteratorIT_T0_EESE_
FN:1334,1337,_ZN9__gnu_cxxmiIPSt4pairIiiESt6vectorIS2_SaIS2_EEEENS_17__normal_iteratorIT_T0_E15difference_typeERKSA_SD_
FNDA:40,_ZN9__gnu_cxx17__normal_iteratorIPPN23SeparateChainingHashMapIiNSt7__cxx1112basic_stringIcSt11char_traitsIcESaIcEEEE4NodeESt6vectorISA_SaISA_EEEC2ERKSB_
FNDA:20,_ZN9__gnu_cxx17__normal_iteratorIPPN23SeparateChainingHashMapIiiE4NodeESt6vectorIS4_SaIS4_EEEC2ERKS5_
FNDA:16,_ZN9__gnu_cxx17__normal_iteratorIPSt4pairIiiESt6vectorIS2_SaIS2_EEEC2ERKS3_
FNDA:188,_ZNK9__gnu_cxx17__normal_iteratorIPKcNSt7__cxx1112basic_stringIcSt11char_traitsIcESaIcEEEEdeEv
FNDA:220,_ZNK9__gnu_cxx17__normal_iteratorIPPN23SeparateChainingHashMapIiNSt7__cxx1112basic_stringIcSt11char_traitsIcESaIcEEEE4NodeESt6vectorISA_SaISA_EEEdeEv
FNDA:102,_ZNK9__gnu_cxx17__normal_iteratorIPPN23SeparateChainingHashMapIiiE4NodeESt6vectorIS4_SaIS4_EEEdeEv
FNDA:4,_ZNK9__gnu_cxx17__normal_iteratorIPSt4pairIiiESt6vectorIS2_SaIS2_EEEdeEv
FNDA:188,_ZN9__gnu_cxx17__normal_iteratorIPKcNSt7__cxx1112basic_stringIcSt11char_traitsIcESaIcEEEEppEv
FNDA:220,_ZN9__gnu_cxx17__normal_iteratorIPPN23SeparateChainingHashMapIiNSt7__cxx1112basic_stringIcSt11char_traitsIcESaIcEEEE4NodeESt6vectorISA_SaISA_EEEppEv
FNDA:102,_ZN9__gnu_cxx17__normal_iteratorIPPN23SeparateChainingHashMapIiiE4NodeESt6vectorIS4_SaIS4_EEEppEv
FNDA:4,_ZNK9__gnu_cxx17__normal_iteratorIPSt4pairIiiESt6vectorIS2_SaIS2_EEEmiEl
FNDA:488,_ZNK9__gnu_cxx17__normal_iteratorIPKcNSt7__cxx1112basic_stringIcSt11char_traitsIcESaIcEEEE4baseEv
FNDA:480,_ZNK9__gnu_cxx17__normal_iteratorIPPN23SeparateChainingHashMapIiNSt7__cxx1112basic_stringIcSt11char_traitsIcESaIcEEEE4NodeESt6vectorISA_SaISA_EEE4baseEv
FNDA:224,_ZNK9__gnu_cxx17__normal_iteratorIPPN23SeparateChainingHashMapIiiE4NodeESt6vectorIS4_SaIS4_EEE4baseEv
FNDA:16,_ZNK9__gnu_cxx17__normal_iteratorIPSt4pairIiiESt6vectorIS2_SaIS2_EEE4baseEv
FNDA:244,_ZN9__gnu_cxxneIPKcNSt7__cxx1112basic_stringIcSt11char_traitsIcESaIcEEEEEbRKNS_17__normal_iteratorIT_T0_EESE_
FNDA:240,_ZN9__gnu_cxxneIPPN23SeparateChainingHashMapIiNSt7__cxx1112basic_stringIcSt11char_traitsIcESaIcEEEE4NodeESt6vectorISA_SaISA_EEEEbRKNS_17__normal_iteratorIT_T0_EESK_
FNDA:112,_ZN9__gnu_cxxneIPPN23SeparateChainingHashMapIiiE4NodeESt6vectorIS4_SaIS4_EEEEbRKNS_17__normal_iteratorIT_T0_EESE_
FNDA:4,_ZN9__gnu_cxxmiIPSt4pairIiiESt6vectorIS2_SaIS2_EEEENS_17__normal_iteratorIT_T0_E15difference_typeERKSA_SD_
FNF:19
FNH:19
DA:1076,76
DA:1077,76
DA:1099,514
DA:1100,514
DA:1109,510
DA:1111,510
DA:1112,510
DA:1157,4
DA:1158,4
DA:1162,1208
DA:1163,1208
DA:1241,596
DA:1244,596
DA:1334,4
DA:1337,4
LF:15
LH:15
end_of_record
TN:
SF:/usr/include/c++/13/bits/stl_iterator_base_funcs.h
FNF:0
FNH:0
DA:106,312
DA:151,624
DA:152,624
LF:3
LH:3
end_of_record
TN:
SF:/usr/include/c++/13/bits/stl_iterator_base_types.h
FNF:0
FNH:0
DA:240,372
LF:1
LH:1
end_of_record
TN:
SF:/usr/include/c++/13/bits/stl_pair.h
FN:687,689,_ZNSt4pairIiiEC2IRiS2_Lb1EEEOT_OT0_
FNDA:4,_ZNSt4pairIiiEC2IRiS2_Lb1EEEOT_OT0_
FNF:1
FNH:1
DA:687,4
DA:688,4
DA:689,4
LF:3
LH:3
end_of_record
TN:
SF:/usr/include/c++/13/bits/stl_uninitialized.h
FN:1069,1079,_ZSt19__relocate_object_aISt4pairIiiES1_SaIS1_EEvPT_PT0_RT1_
FN:1091,1108,_ZSt14__relocate_a_1IPSt4pairIiiES2_SaIS1_EET0_T_S5_S4_RT1_
FN:1141,1150,_ZSt12__relocate_aIPSt4pairIiiES2_SaIS1_EET0_T_S5_S4_RT1_
FN:292,294,_ZNSt22__uninitialized_fill_nILb1EE15__uninit_fill_nIPPN23SeparateChainingHashMapIiNSt7__cxx1112basic_stringIcSt11char_traitsIcESaIcEEEE4NodeEmSB_EET_SD_T0_RKT1_
FN:292,294,_ZNSt22__uninitialized_fill_nILb1EE15__uninit_fill_nIPPN23SeparateChainingHashMapIiiE4NodeEmS5_EET_S7_T0_RKT1_
FN:312,328,_ZSt20uninitialized_fill_nIPPN23SeparateChainingHashMapIiNSt7__cxx1112basic_stringIcSt11char_traitsIcESaIcEEEE4NodeEmS9_ET_SB_T0_RKT1_
FN:312,328,_ZSt20uninitialized_fill_nIPPN23SeparateChainingHashMapIiiE4NodeEmS3_ET_S5_T0_RKT1_
FN:465,473,_ZSt24__uninitialized_fill_n_aIPPN23SeparateChainingHashMapIiNSt7__cxx1112basic_stringIcSt11char_traitsIcESaIcEEEE4NodeEmS9_S9_ET_SB_T0_RKT1_RSaIT2_E
FN:465,473,_ZSt24__uninitialized_fill_n_aIPPN23SeparateChainingHashMapIiiE4NodeEmS3_S3_ET_S5_T0_RKT1_RSaIT2_E
FNDA:2,_ZSt19__relocate_object_aISt4pairIiiES1_SaIS1_EEvPT_PT0_RT1_
FNDA:8,_ZSt14__relocate_a_1IPSt4pairIiiES2_SaIS1_EET0_T_S5_S4_RT1_
FNDA:8,_ZSt12__relocate_aIPSt4pairIiiES2_SaIS1_EET0_T_S5_S4_RT1_
FNDA:18,_ZNSt22__uninitialized_fill_nILb1EE15__uninit_fill_nIPPN23SeparateChainingHashMapIiNSt7__cxx1112basic_stringIcSt11char_traitsIcESaIcEEEE4NodeEmSB_EET_SD_T0_RKT1_
FNDA:10,_ZNSt22__uninitialized_fill_nILb1EE15__uninit_fill_nIPPN23SeparateChainingHashMapIiiE4NodeEmS5_EET_S7_T0_RKT1_
FNDA:18,_ZSt20uninitialized_fill_nIPPN23SeparateChainingHashMapIiNSt7__cxx1112basic_stringIcSt11char_traitsIcESaIcEEEE4NodeEmS9_ET_SB_T0_RKT1_
FNDA:10,_ZSt20uninitialized_fill_nIPPN23SeparateChainingHashMapIiiE4NodeEmS3_ET_S5_T0_RKT1_
FNDA:18,_ZSt24__uninitialized_fill_n_aIPPN23SeparateChainingHashMapIiNSt7__cxx1112basic_stringIcSt11char_traitsIcESaIcEEEE4NodeEmS9_S9_ET_SB_T0_RKT1_RSaIT2_E
FNDA:10,_ZSt24__uninitialized_fill_n_aIPPN23SeparateChainingHashMapIiiE4NodeEmS3_S3_ET_S5_T0_RKT1_RSaIT2_E
FNF:9
FNH:9
DA:292,28
DA:294,28
DA:312,28
DA:319,28
DA:327,28
DA:465,28
DA:472,28
DA:1069,2
DA:1077,2
DA:1078,2
DA:1079,2
DA:1091,8
DA:1103,8
DA:1104,10
DA:1105,2
DA:1107,8
DA:1141,8
DA:1147,8
DA:1149,8
LF:19
LH:19
end_of_record
TN:
SF:/usr/include/c++/13/bits/stl_vector.h
FN:1078,1080,_ZNKSt6vectorIPN23SeparateChainingHashMapIiNSt7__cxx1112basic_stringIcSt11char_traitsIcESaIcEEEE4NodeESaIS9_EE8capacityEv
FN:1078,1080,_ZNKSt6vectorIPN23SeparateChainingHashMapIiiE4NodeESaIS3_EE8capacityEv
FN:1126,1130,_ZNSt6vectorIPN23SeparateChainingHashMapIiNSt7__cxx1112basic_stringIcSt11char_traitsIcESaIcEEEE4NodeESaIS9_EEixEm
FN:1126,1130,_ZNSt6vectorIPN23SeparateChainingHashMapIiiE4NodeESaIS3_EEixEm
FN:113,118,_ZNSt12_Vector_baseIPN23SeparateChainingHashMapIiNSt7__cxx1112basic_stringIcSt11char_traitsIcESaIcEEEE4NodeESaIS9_EE17_Vector_impl_data12_M_copy_dataERKSC_
FN:113,118,_ZNSt12_Vector_baseIPN23SeparateChainingHashMapIiiE4NodeESaIS3_EE17_Vector_impl_data12_M_copy_dataERKS6_
FN:1145,1149,_ZNKSt6vectorIPN23SeparateChainingHashMapIiNSt7__cxx1112basic_stringIcSt11char_traitsIcESaIcEEEE4NodeESaIS9_EEixEm
FN:1145,1149,_ZNKSt6vectorIPN23SeparateChainingHashMapIiiE4NodeESaIS3_EEixEm
FN:122,130,_ZNSt12_Vector_baseIPN23SeparateChainingHashMapIiNSt7__cxx1112basic_stringIcSt11char_traitsIcESaIcEEEE4NodeESaIS9_EE17_Vector_impl_data12_M_swap_dataERSC_
FN:122,130,_ZNSt12_Vector_baseIPN23SeparateChainingHashMapIiiE4NodeESaIS3_EE17_Vector_impl_data12_M_swap_dataERS6_
FN:1233,1237,_ZNSt6vectorISt4pairIiiESaIS1_EE4backEv
FN:1298,1299,_ZNSt6vectorISt4pairIiiESaIS1_EE9push_backEOS1_
FN:137,143,_ZNSt12_Vector_baseISt4pairIiiESaIS1_EE12_Vector_implC2Ev
FN:146,148,_ZNSt12_Vector_baseIPN23SeparateChainingHashMapIiNSt7__cxx1112basic_stringIcSt11char_traitsIcESaIcEEEE4NodeESaIS9_EE12_Vector_implC2ERKSA_
FN:146,148,_ZNSt12_Vector_baseIPN23SeparateChainingHashMapIiiE4NodeESaIS3_EE12_Vector_implC2ERKS4_
FN:1704,1709,_ZNSt6vectorIPN23SeparateChainingHashMapIiNSt7__cxx1112basic_stringIcSt11char_traitsIcESaIcEEEE4NodeESaIS9_EE18_M_fill_initializeEmRKS9_
FN:1704,1709,_ZNSt6vectorIPN23SeparateChainingHashMapIiiE4NodeESaIS3_EE18_M_fill_initializeEmRKS3_
FN:1896,1903,_ZNKSt6vectorISt4pairIiiESaIS1_EE12_M_check_lenEmPKc
FN:1907,1913,_ZNSt6vectorIPN23SeparateChainingHashMapIiNSt7__cxx1112basic_stringIcSt11char_traitsIcESaIcEEEE4NodeESaIS9_EE17_S_check_init_lenEmRKSA_
FN:1907,1913,_ZNSt6vectorIPN23SeparateChainingHashMapIiiE4NodeESaIS3_EE17_S_check_init_lenEmRKS4_
FN:1916,1925,_ZNSt6vectorIPN23SeparateChainingHashMapIiNSt7__cxx1112basic_stringIcSt11char_traitsIcESaIcEEEE4NodeESaIS9_EE11_S_max_sizeERKSA_
FN:1916,1925,_ZNSt6vectorIPN23SeparateChainingHashMapIiiE4NodeESaIS3_EE11_S_max_sizeERKS4_
FN:1916,1925,_ZNSt6vectorISt4pairIiiESaIS1_EE11_S_max_sizeERKS2_
FN:1933,1942,_ZNSt6vectorIPN23SeparateChainingHashMapIiNSt7__cxx1112basic_stringIcSt11char_traitsIcESaIcEEEE4NodeESaIS9_EE15_M_erase_at_endEPS9_
FN:1933,1942,_ZNSt6vectorIPN23SeparateChainingHashMapIiiE4NodeESaIS3_EE15_M_erase_at_endEPS3_
FN:1959,1965,_ZNSt6vectorIPN23SeparateChainingHashMapIiNSt7__cxx1112basic_stringIcSt11char_traitsIcESaIcEEEE4NodeESaIS9_EE14_M_move_assignEOSB_St17integral_constantIbLb1EE
FN:1959,1965,_ZNSt6vectorIPN23SeparateChainingHashMapIiiE4NodeESaIS3_EE14_M_move_assignEOS5_St17integral_constantIbLb1EE
FN:301,302,_ZNSt12_Vector_baseIPN23SeparateChainingHashMapIiNSt7__cxx1112basic_stringIcSt11char_traitsIcESaIcEEEE4NodeESaIS9_EE19_M_get_Tp_allocatorEv
FN:301,302,_ZNSt12_Vector_baseIPN23SeparateChainingHashMapIiiE4NodeESaIS3_EE19_M_get_Tp_allocatorEv
FN:301,302,_ZNSt12_Vector_baseISt4pairIiiESaIS1_EE19_M_get_Tp_allocatorEv
FN:306,307,_ZNKSt12_Vector_baseIPN23SeparateChainingHashMapIiNSt7__cxx1112basic_stringIcSt11char_traitsIcESaIcEEEE4NodeESaIS9_EE19_M_get_Tp_allocatorEv
FN:306,307,_ZNKSt12_Vector_baseIPN23SeparateChainingHashMapIiiE4NodeESaIS3_EE19_M_get_Tp_allocatorEv
FN:306,307,_ZNKSt12_Vector_baseISt4pairIiiESaIS1_EE19_M_get_Tp_allocatorEv
FN:311,312,_ZNKSt12_Vector_baseIPN23SeparateChainingHashMapIiNSt7__cxx1112basic_stringIcSt11char_traitsIcESaIcEEEE4NodeESaIS9_EE13get_allocatorEv
FN:311,312,_ZNKSt12_Vector_baseIPN23SeparateChainingHashMapIiiE4NodeESaIS3_EE13get_allocatorEv
FN:315,315,_ZNSt12_Vector_baseISt4pairIiiESaIS1_EEC2Ev
FN:321,322,_ZNSt12_Vector_baseIPN23SeparateChainingHashMapIiNSt7__cxx1112basic_stringIcSt11char_traitsIcESaIcEEEE4NodeESaIS9_EEC2ERKSA_
FN:321,322,_ZNSt12_Vector_baseIPN23SeparateChainingHashMapIiiE4NodeESaIS3_EEC2ERKS4_
FN:333,335,_ZNSt12_Vector_baseIPN23SeparateChainingHashMapIiNSt7__cxx1112basic_stringIcSt11char_traitsIcESaIcEEEE4NodeESaIS9_EEC2EmRKSA_
FN:333,335,_ZNSt12_Vector_baseIPN23SeparateChainingHashMapIiiE4NodeESaIS3_EEC2EmRKS4_
FN:367,371,_ZNSt12_Vector_baseIPN23SeparateChainingHashMapIiNSt7__cxx1112basic_stringIcSt11char_traitsIcESaIcEEEE4NodeESaIS9_EED2Ev
FN:367,371,_ZNSt12_Vector_baseIPN23SeparateChainingHashMapIiiE4NodeESaIS3_EED2Ev
FN:367,371,_ZNSt12_Vector_baseISt4pairIiiESaIS1_EED2Ev
FN:378,382,_ZNSt12_Vector_baseIPN23SeparateChainingHashMapIiNSt7__cxx1112basic_stringIcSt11char_traitsIcESaIcEEEE4NodeESaIS9_EE11_M_allocateEm
FN:378,382,_ZNSt12_Vector_baseIPN23SeparateChainingHashMapIiiE4NodeESaIS3_EE11_M_allocateEm
FN:378,382,_ZNSt12_Vector_baseISt4pairIiiESaIS1_EE11_M_allocateEm
FN:386,391,_ZNSt12_Vector_baseIPN23SeparateChainingHashMapIiNSt7__cxx1112basic_stringIcSt11char_traitsIcESaIcEEEE4NodeESaIS9_EE13_M_deallocateEPS9_m
FN:386,391,_ZNSt12_Vector_baseIPN23SeparateChainingHashMapIiiE4NodeESaIS3_EE13_M_deallocateEPS3_m
FN:386,391,_ZNSt12_Vector_baseISt4pairIiiESaIS1_EE13_M_deallocateEPS1_m
FN:396,401,_ZNSt12_Vector_baseIPN23SeparateChainingHashMapIiNSt7__cxx1112basic_stringIcSt11char_traitsIcESaIcEEEE4NodeESaIS9_EE17_M_create_storageEm
FN:396,401,_ZNSt12_Vector_baseIPN23SeparateChainingHashMapIiiE4NodeESaIS3_EE17_M_create_storageEm
FN:504,514,_ZNSt6vectorISt4pairIiiESaIS1_EE11_S_relocateEPS1_S4_S4_RS2_
FN:531,531,_ZNSt6vectorISt4pairIiiESaIS1_EEC2Ev
FN:542,543,_ZNSt6vectorIPN23SeparateChainingHashMapIiNSt7__cxx1112basic_stringIcSt11char_traitsIcESaIcEEEE4NodeESaIS9_EEC2ERKSA_
FN:542,543,_ZNSt6vectorIPN23SeparateChainingHashMapIiiE4NodeESaIS3_EEC2ERKS4_
FN:569,572,_ZNSt6vectorIPN23SeparateChainingHashMapIiNSt7__cxx1112basic_stringIcSt11char_traitsIcESaIcEEEE4NodeESaIS9_EEC2EmRKS9_RKSA_
FN:569,572,_ZNSt6vectorIPN23SeparateChainingHashMapIiiE4NodeESaIS3_EEC2EmRKS3_RKS4_
FN:733,738,_ZNSt6vectorIPN23SeparateChainingHashMapIiNSt7__cxx1112basic_stringIcSt11char_traitsIcESaIcEEEE4NodeESaIS9_EED2Ev
FN:733,738,_ZNSt6vectorIPN23SeparateChainingHashMapIiiE4NodeESaIS3_EED2Ev
FN:733,738,_ZNSt6vectorISt4pairIiiESaIS1_EED2Ev
FN:766,773,_ZNSt6vectorIPN23SeparateChainingHashMapIiNSt7__cxx1112basic_stringIcSt11char_traitsIcESaIcEEEE4NodeESaIS9_EEaSEOSB_
FN:766,773,_ZNSt6vectorIPN23SeparateChainingHashMapIiiE4NodeESaIS3_EEaSEOS5_
FN:808,809,_ZNSt6vectorIPN23SeparateChainingHashMapIiNSt7__cxx1112basic_stringIcSt11char_traitsIcESaIcEEEE4NodeESaIS9_EE6assignEmRKS9_
FN:808,809,_ZNSt6vectorIPN23SeparateChainingHashMapIiiE4NodeESaIS3_EE6assignEmRKS3_
FN:873,874,_ZNSt6vectorIPN23SeparateChainingHashMapIiNSt7__cxx1112basic_stringIcSt11char_traitsIcESaIcEEEE4NodeESaIS9_EE5beginEv
FN:873,874,_ZNSt6vectorIPN23SeparateChainingHashMapIiiE4NodeESaIS3_EE5beginEv
FN:873,874,_ZNSt6vectorISt4pairIiiESaIS1_EE5beginEv
FN:893,894,_ZNSt6vectorIPN23SeparateChainingHashMapIiNSt7__cxx1112basic_stringIcSt11char_traitsIcESaIcEEEE4NodeESaIS9_EE3endEv
FN:893,894,_ZNSt6vectorIPN23SeparateChainingHashMapIiiE4NodeESaIS3_EE3endEv
FN:893,894,_ZNSt6vectorISt4pairIiiESaIS1_EE3endEv
FN:99,101,_ZNSt12_Vector_baseIPN23SeparateChainingHashMapIiNSt7__cxx1112basic_stringIcSt11char_traitsIcESaIcEEEE4NodeESaIS9_EE17_Vector_impl_dataC2Ev
FN:99,101,_ZNSt12_Vector_baseIPN23SeparateChainingHashMapIiiE4NodeESaIS3_EE17_Vector_impl_dataC2Ev
FN:99,101,_ZNSt12_Vector_baseISt4pairIiiESaIS1_EE17_Vector_impl_dataC2Ev
FN:992,993,_ZNKSt6vectorIPN23SeparateChainingHashMapIiNSt7__cxx1112basic_stringIcSt11char_traitsIcESaIcEEEE4NodeESaIS9_EE4sizeEv
FN:992,993,_ZNKSt6vectorIPN23SeparateChainingHashMapIiiE4NodeESaIS3_EE4sizeEv
FN:992,993,_ZNKSt6vectorISt4pairIiiESaIS1_EE4sizeEv
FN:998,999,_ZNKSt6vectorISt4pairIiiESaIS1_EE8max_sizeEv
FNDA:22,_ZNKSt6vectorIPN23SeparateChainingHashMapIiNSt7__cxx1112basic_stringIcSt11char_traitsIcESaIcEEEE4NodeESaIS9_EE8capacityEv
FNDA:10,_ZNKSt6vectorIPN23SeparateChainingHashMapIiiE4NodeESaIS3_EE8capacityEv
FNDA:130,_ZNSt6vectorIPN23SeparateChainingHashMapIiNSt7__cxx1112basic_stringIcSt11char_traitsIcESaIcEEEE4NodeESaIS9_EEixEm
FNDA:70,_ZNSt6vectorIPN23SeparateChainingHashMapIiiE4NodeESaIS3_EEixEm
FNDA:0,_ZNSt12_Vector_baseIPN23SeparateChainingHashMapIiNSt7__cxx1112basic_stringIcSt11char_traitsIcESaIcEEEE4NodeESaIS9_EE17_Vector_impl_data12_M_copy_dataERKSC_
FNDA:12,_ZNSt12_Vector_baseIPN23SeparateChainingHashMapIiiE4NodeESaIS3_EE17_Vector_impl_data12_M_copy_dataERKS6_
FNDA:52,_ZNKSt6vectorIPN23SeparateChainingHashMapIiNSt7__cxx1112basic_stringIcSt11char_traitsIcESaIcEEEE4NodeESaIS9_EEixEm
FNDA:22,_ZNKSt6vectorIPN23SeparateChainingHashMapIiiE4NodeESaIS3_EEixEm
FNDA:0,_ZNSt12_Vector_baseIPN23SeparateChainingHashMapIiNSt7__cxx1112basic_stringIcSt11char_traitsIcESaIcEEEE4NodeESaIS9_EE17_Vector_impl_data12_M_swap_dataERSC_
FNDA:4,_ZNSt12_Vector_baseIPN23SeparateChainingHashMapIiiE4NodeESaIS3_EE17_Vector_impl_data12_M_swap_dataERS6_
FNDA:4,_ZNSt6vectorISt4pairIiiESaIS1_EE4backEv
FNDA:4,_ZNSt6vectorISt4pairIiiESaIS1_EE9push_backEOS1_
FNDA:2,_ZNSt12_Vector_baseISt4pairIiiESaIS1_EE12_Vector_implC2Ev
FNDA:18,_ZNSt12_Vector_baseIPN23SeparateChainingHashMapIiNSt7__cxx1112basic_stringIcSt11char_traitsIcESaIcEEEE4NodeESaIS9_EE12_Vector_implC2ERKSA_
FNDA:12,_ZNSt12_Vector_baseIPN23SeparateChainingHashMapIiiE4NodeESaIS3_EE12_Vector_implC2ERKS4_
FNDA:18,_ZNSt6vectorIPN23SeparateChainingHashMapIiNSt7__cxx1112basic_stringIcSt11char_traitsIcESaIcEEEE4NodeESaIS9_EE18_M_fill_initializeEmRKS9_
FNDA:10,_ZNSt6vectorIPN23SeparateChainingHashMapIiiE4NodeESaIS3_EE18_M_fill_initializeEmRKS3_
FNDA:4,_ZNKSt6vectorISt4pairIiiESaIS1_EE12_M_check_lenEmPKc
FNDA:18,_ZNSt6vectorIPN23SeparateChainingHashMapIiNSt7__cxx1112basic_stringIcSt11char_traitsIcESaIcEEEE4NodeESaIS9_EE17_S_check_init_lenEmRKSA_
FNDA:10,_ZNSt6vectorIPN23SeparateChainingHashMapIiiE4NodeESaIS3_EE17_S_check_init_lenEmRKS4_
FNDA:18,_ZNSt6vectorIPN23SeparateChainingHashMapIiNSt7__cxx1112basic_stringIcSt11char_traitsIcESaIcEEEE4NodeESaIS9_EE11_S_max_sizeERKSA_
FNDA:10,_ZNSt6vectorIPN23SeparateChainingHashMapIiiE4NodeESaIS3_EE11_S_max_sizeERKS4_
FNDA:8,_ZNSt6vectorISt4pairIiiESaIS1_EE11_S_max_sizeERKS2_
FNDA:22,_ZNSt6vectorIPN23SeparateChainingHashMapIiNSt7__cxx1112basic_stringIcSt11char_traitsIcESaIcEEEE4NodeESaIS9_EE15_M_erase_at_endEPS9_
FNDA:10,_ZNSt6vectorIPN23SeparateChainingHashMapIiiE4NodeESaIS3_EE15_M_erase_at_endEPS3_
FNDA:0,_ZNSt6vectorIPN23SeparateChainingHashMapIiNSt7__cxx1112basic_stringIcSt11char_traitsIcESaIcEEEE4NodeESaIS9_EE14_M_move_assignEOSB_St17integral_constantIbLb1EE
FNDA:2,_ZNSt6vectorIPN23SeparateChainingHashMapIiiE4NodeESaIS3_EE14_M_move_assignEOS5_St17integral_constantIbLb1EE
FNDA:36,_ZNSt12_Vector_baseIPN23SeparateChainingHashMapIiNSt7__cxx1112basic_stringIcSt11char_traitsIcESaIcEEEE4NodeESaIS9_EE19_M_get_Tp_allocatorEv
FNDA:26,_ZNSt12_Vector_baseIPN23SeparateChainingHashMapIiiE4NodeESaIS3_EE19_M_get_Tp_allocatorEv
FNDA:10,_ZNSt12_Vector_baseISt4pairIiiESaIS1_EE19_M_get_Tp_allocatorEv
FNDA:0,_ZNKSt12_Vector_baseIPN23SeparateChainingHashMapIiNSt7__cxx1112basic_stringIcSt11char_traitsIcESaIcEEEE4NodeESaIS9_EE19_M_get_Tp_allocatorEv
FNDA:2,_ZNKSt12_Vector_baseIPN23SeparateChainingHashMapIiiE4NodeESaIS3_EE19_M_get_Tp_allocatorEv
FNDA:8,_ZNKSt12_Vector_baseISt4pairIiiESaIS1_EE19_M_get_Tp_allocatorEv
FNDA:0,_ZNKSt12_Vector_baseIPN23SeparateChainingHashMapIiNSt7__cxx1112basic_stringIcSt11char_traitsIcESaIcEEEE4NodeESaIS9_EE13get_allocatorEv
FNDA:2,_ZNKSt12_Vector_baseIPN23SeparateChainingHashMapIiiE4NodeESaIS3_EE13get_allocatorEv
FNDA:2,_ZNSt12_Vector_baseISt4pairIiiESaIS1_EEC2Ev
FNDA:0,_ZNSt12_Vector_baseIPN23SeparateChainingHashMapIiNSt7__cxx1112basic_stringIcSt11char_traitsIcESaIcEEEE4NodeESaIS9_EEC2ERKSA_
FNDA:2,_ZNSt12_Vector_baseIPN23SeparateChainingHashMapIiiE4NodeESaIS3_EEC2ERKS4_
FNDA:18,_ZNSt12_Vector_baseIPN23SeparateChainingHashMapIiNSt7__cxx1112basic_stringIcSt11char_traitsIcESaIcEEEE4NodeESaIS9_EEC2EmRKSA_
FNDA:10,_ZNSt12_Vector_baseIPN23SeparateChainingHashMapIiiE4NodeESaIS3_EEC2EmRKS4_
FNDA:18,_ZNSt12_Vector_baseIPN23SeparateChainingHashMapIiNSt7__cxx1112basic_stringIcSt11char_traitsIcESaIcEEEE4NodeESaIS9_EED2Ev
FNDA:12,_ZNSt12_Vector_baseIPN23SeparateChainingHashMapIiiE4NodeESaIS3_EED2Ev
FNDA:2,_ZNSt12_Vector_baseISt4pairIiiESaIS1_EED2Ev
FNDA:18,_ZNSt12_Vector_baseIPN23SeparateChainingHashMapIiNSt7__cxx1112basic_stringIcSt11char_traitsIcESaIcEEEE4NodeESaIS9_EE11_M_allocateEm
FNDA:10,_ZNSt12_Vector_baseIPN23SeparateChainingHashMapIiiE4NodeESaIS3_EE11_M_allocateEm
FNDA:4,_ZNSt12_Vector_baseISt4pairIiiESaIS1_EE11_M_allocateEm
FNDA:18,_ZNSt12_Vector_baseIPN23SeparateChainingHashMapIiNSt7__cxx1112basic_stringIcSt11char_traitsIcESaIcEEEE4NodeESaIS9_EE13_M_deallocateEPS9_m
FNDA:12,_ZNSt12_Vector_baseIPN23SeparateChainingHashMapIiiE4NodeESaIS3_EE13_M_deallocateEPS3_m
FNDA:6,_ZNSt12_Vector_baseISt4pairIiiESaIS1_EE13_M_deallocateEPS1_m
FNDA:18,_ZNSt12_Vector_baseIPN23SeparateChainingHashMapIiNSt7__cxx1112basic_stringIcSt11char_traitsIcESaIcEEEE4NodeESaIS9_EE17_M_create_storageEm
FNDA:10,_ZNSt12_Vector_baseIPN23SeparateChainingHashMapIiiE4NodeESaIS3_EE17_M_create_storageEm
FNDA:8,_ZNSt6vectorISt4pairIiiESaIS1_EE11_S_relocateEPS1_S4_S4_RS2_
FNDA:2,_ZNSt6vectorISt4pairIiiESaIS1_EEC2Ev
FNDA:0,_ZNSt6vectorIPN23SeparateChainingHashMapIiNSt7__cxx1112basic_stringIcSt11char_traitsIcESaIcEEEE4NodeESaIS9_EEC2ERKSA_
FNDA:2,_ZNSt6vectorIPN23SeparateChainingHashMapIiiE4NodeESaIS3_EEC2ERKS4_
FNDA:18,_ZNSt6vectorIPN23SeparateChainingHashMapIiNSt7__cxx1112basic_stringIcSt11char_traitsIcESaIcEEEE4NodeESaIS9_EEC2EmRKS9_RKSA_
FNDA:10,_ZNSt6vectorIPN23SeparateChainingHashMapIiiE4NodeESaIS3_EEC2EmRKS3_RKS4_
FNDA:18,_ZNSt6vectorIPN23SeparateChainingHashMapIiNSt7__cxx1112basic_stringIcSt11char_traitsIcESaIcEEEE4NodeESaIS9_EED2Ev
FNDA:12,_ZNSt6vectorIPN23SeparateChainingHashMapIiiE4NodeESaIS3_EED2Ev
FNDA:2,_ZNSt6vectorISt4pairIiiESaIS1_EED2Ev
FNDA:0,_ZNSt6vectorIPN23SeparateChainingHashMapIiNSt7__cxx1112basic_stringIcSt11char_traitsIcESaIcEEEE4NodeESaIS9_EEaSEOSB_
FNDA:2,_ZNSt6vectorIPN23SeparateChainingHashMapIiiE4NodeESaIS3_EEaSEOS5_
FNDA:22,_ZNSt6vectorIPN23SeparateChainingHashMapIiNSt7__cxx1112basic_stringIcSt11char_traitsIcESaIcEEEE4NodeESaIS9_EE6assignEmRKS9_
FNDA:10,_ZNSt6vectorIPN23SeparateChainingHashMapIiiE4NodeESaIS3_EE6assignEmRKS3_
FNDA:20,_ZNSt6vectorIPN23SeparateChainingHashMapIiNSt7__cxx1112basic_stringIcSt11char_traitsIcESaIcEEEE4NodeESaIS9_EE5beginEv
FNDA:10,_ZNSt6vectorIPN23SeparateChainingHashMapIiiE4NodeESaIS3_EE5beginEv
FNDA:4,_ZNSt6vectorISt4pairIiiESaIS1_EE5beginEv
FNDA:20,_ZNSt6vectorIPN23SeparateChainingHashMapIiNSt7__cxx1112basic_stringIcSt11char_traitsIcESaIcEEEE4NodeESaIS9_EE3endEv
FNDA:10,_ZNSt6vectorIPN23SeparateChainingHashMapIiiE4NodeESaIS3_EE3endEv
FNDA:8,_ZNSt6vectorISt4pairIiiESaIS1_EE3endEv
FNDA:18,_ZNSt12_Vector_baseIPN23SeparateChainingHashMapIiNSt7__cxx1112basic_stringIcSt11char_traitsIcESaIcEEEE4NodeESaIS9_EE17_Vector_impl_dataC2Ev
FNDA:16,_ZNSt12_Vector_baseIPN23SeparateChainingHashMapIiiE4NodeESaIS3_EE17_Vector_impl_dataC2Ev
FNDA:2,_ZNSt12_Vector_baseISt4pairIiiESaIS1_EE17_Vector_impl_dataC2Ev
FNDA:22,_ZNKSt6vectorIPN23SeparateChainingHashMapIiNSt7__cxx1112basic_stringIcSt11char_traitsIcESaIcEEEE4NodeESaIS9_EE4sizeEv
FNDA:10,_ZNKSt6vectorIPN23SeparateChainingHashMapIiiE4NodeESaIS3_EE4sizeEv
FNDA:18,_ZNKSt6vectorISt4pairIiiESaIS1_EE4sizeEv
FNDA:8,_ZNKSt6vectorISt4pairIiiESaIS1_EE8max_sizeEv
FNF:77
FNH:69
DA:99,36
DA:100,36
DA:101,36
DA:113,12
DA:115,12
DA:116,12
DA:117,12
DA:118,12
DA:122,4
DA:126,4
DA:127,4
DA:128,4
DA:129,4
DA:130,4
DA:137,2
DA:142,2
DA:143,2
DA:146,30
DA:147,30
DA:148,30
DA:301,72
DA:302,72
DA:306,10
DA:307,10
DA:311,2
DA:312,4
DA:315,2
DA:321,2
DA:322,2
DA:333,28
DA:334,28
DA:335,28
DA:367,32
DA:369,32
DA:370,32
DA:371,32
DA:378,32
DA:381,64
DA:386,36
DA:389,36
DA:390,32
DA:391,36
DA:396,28
DA:398,28
DA:399,28
DA:400,28
DA:401,28
DA:504,8
DA:509,8
DA:531,2
DA:542,2
DA:543,2
DA:569,28
DA:571,28
DA:572,28
DA:733,32
DA:735,32
DA:736,32
DA:738,32
DA:766,2
DA:768,2
DA:771,2
DA:772,2
DA:808,32
DA:809,32
DA:873,34
DA:874,34
DA:893,38
DA:894,38
DA:992,50
DA:993,50
DA:998,8
DA:999,8
DA:1078,32
DA:1079,32
DA:1080,32
DA:1126,200
DA:1129,200
DA:1145,74
DA:1148,74
DA:1233,4
DA:1236,4
DA:1298,4
DA:1299,4
DA:1704,28
DA:1706,28
DA:1707,28
DA:1708,28
DA:1709,28
DA:1896,4
DA:1898,4
DA:1899,0
DA:1901,4
DA:1902,4
DA:1907,28
DA:1909,28
DA:1910,0
DA:1912,28
DA:1916,36
DA:1921,36
DA:1923,36
DA:1924,36
DA:1933,32
DA:1935,32
DA:1937,0
DA:1938,0
DA:1939,0
DA:1942,32
DA:1959,2
DA:1961,2
DA:1962,2
DA:1963,2
DA:1964,2
DA:1965,2
LF:114
LH:109
end_of_record
TN:
SF:/usr/include/c++/13/bits/unique_ptr.h
FN:1069,1070,_ZSt11make_uniqueINSt7__cxx1112basic_stringIcSt11char_traitsIcESaIcEEEJEENSt8__detail9_MakeUniqIT_E15__single_objectEDpOT0_
FN:174,174,_ZNSt15__uniq_ptr_implINSt7__cxx1112basic_stringIcSt11char_traitsIcESaIcEEESt14default_deleteIS5_EEC2Ev
FN:176,176,_ZNSt15__uniq_ptr_implINSt7__cxx1112basic_stringIcSt11char_traitsIcESaIcEEESt14default_deleteIS5_EEC2EPS5_
FN:189,194,_ZNSt15__uniq_ptr_implINSt7__cxx1112basic_stringIcSt11char_traitsIcESaIcEEESt14default_deleteIS5_EEaSEOS8_
FN:197,197,_ZNSt15__uniq_ptr_implINSt7__cxx1112basic_stringIcSt11char_traitsIcESaIcEEESt14default_deleteIS5_EE6_M_ptrEv
FN:197,197,_ZNSt15__uniq_ptr_implINSt7__cxx1118basic_stringstreamIcSt11char_traitsIcESaIcEEESt14default_deleteIS5_EE6_M_ptrEv
FN:199,199,_ZNKSt15__uniq_ptr_implINSt7__cxx1112basic_stringIcSt11char_traitsIcESaIcEEESt14default_deleteIS5_EE6_M_ptrEv
FN:199,199,_ZNKSt15__uniq_ptr_implINSt7__cxx1118basic_stringstreamIcSt11char_traitsIcESaIcEEESt14default_deleteIS5_EE6_M_ptrEv
FN:201,201,_ZNSt15__uniq_ptr_implINSt7__cxx1112basic_stringIcSt11char_traitsIcESaIcEEESt14default_deleteIS5_EE10_M_deleterEv
FN:201,201,_ZNSt15__uniq_ptr_implINSt7__cxx1118basic_stringstreamIcSt11char_traitsIcESaIcEEESt14default_deleteIS5_EE10_M_deleterEv
FN:206,212,_ZNSt15__uniq_ptr_implINSt7__cxx1112basic_stringIcSt11char_traitsIcESaIcEEESt14default_deleteIS5_EE5resetEPS5_
FN:215,220,_ZNSt15__uniq_ptr_implINSt7__cxx1112basic_stringIcSt11char_traitsIcESaIcEEESt14default_deleteIS5_EE7releaseEv
FN:243,243,_ZNSt15__uniq_ptr_dataINSt7__cxx1112basic_stringIcSt11char_traitsIcESaIcEEESt14default_deleteIS5_ELb1ELb1EEaSEOS8_
FN:304,306,_ZNSt10unique_ptrINSt7__cxx1112basic_stringIcSt11char_traitsIcESaIcEEESt14default_deleteIS5_EEC2IS7_vEEv
FN:317,319,_ZNSt10unique_ptrINSt7__cxx1112basic_stringIcSt11char_traitsIcESaIcEEESt14default_deleteIS5_EEC2IS7_vEEPS5_
FN:398,406,_ZNSt10unique_ptrINSt7__cxx1112basic_stringIcSt11char_traitsIcESaIcEEESt14default_deleteIS5_EED2Ev
FN:398,406,_ZNSt10unique_ptrINSt7__cxx1118basic_stringstreamIcSt11char_traitsIcESaIcEEESt14default_deleteIS5_EED2Ev
FN:414,414,_ZNSt10unique_ptrINSt7__cxx1112basic_stringIcSt11char_traitsIcESaIcEEESt14default_deleteIS5_EEaSEOS8_
FN:451,455,_ZNKSt10unique_ptrINSt7__cxx1118basic_stringstreamIcSt11char_traitsIcESaIcEEESt14default_deleteIS5_EEdeEv
FN:460,464,_ZNKSt10unique_ptrINSt7__cxx1112basic_stringIcSt11char_traitsIcESaIcEEESt14default_deleteIS5_EEptEv
FN:469,470,_ZNKSt10unique_ptrINSt7__cxx1112basic_stringIcSt11char_traitsIcESaIcEEESt14default_deleteIS5_EE3getEv
FN:469,470,_ZNKSt10unique_ptrINSt7__cxx1118basic_stringstreamIcSt11char_traitsIcESaIcEEESt14default_deleteIS5_EE3getEv
FN:475,476,_ZNSt10unique_ptrINSt7__cxx1112basic_stringIcSt11char_traitsIcESaIcEEESt14default_deleteIS5_EE11get_deleterEv
FN:475,476,_ZNSt10unique_ptrINSt7__cxx1118basic_stringstreamIcSt11char_traitsIcESaIcEEESt14default_deleteIS5_EE11get_deleterEv
FN:486,487,_ZNKSt10unique_ptrINSt7__cxx1112basic_stringIcSt11char_traitsIcESaIcEEESt14default_deleteIS5_EEcvbEv
FN:837,838,_ZSteqINSt7__cxx1112basic_stringIcSt11char_traitsIcESaIcEEESt14default_deleteIS5_EEbRKSt10unique_ptrIT_T0_EDn
FN:861,862,_ZStneINSt7__cxx1112basic_stringIcSt11char_traitsIcESaIcEEESt14default_deleteIS5_EEbRKSt10unique_ptrIT_T0_EDn
FN:93,100,_ZNKSt14default_deleteINSt7__cxx1112basic_stringIcSt11char_traitsIcESaIcEEEEclEPS5_
FN:93,100,_ZNKSt14default_deleteINSt7__cxx1118basic_stringstreamIcSt11char_traitsIcESaIcEEEEclEPS5_
FNDA:0,_ZSt11make_uniqueINSt7__cxx1112basic_stringIcSt11char_traitsIcESaIcEEEJEENSt8__detail9_MakeUniqIT_E15__single_objectEDpOT0_
FNDA:178,_ZNSt15__uniq_ptr_implINSt7__cxx1112basic_stringIcSt11char_traitsIcESaIcEEESt14default_deleteIS5_EEC2Ev
FNDA:0,_ZNSt15__uniq_ptr_implINSt7__cxx1112basic_stringIcSt11char_traitsIcESaIcEEESt14default_deleteIS5_EEC2EPS5_
FNDA:0,_ZNSt15__uniq_ptr_implINSt7__cxx1112basic_stringIcSt11char_traitsIcESaIcEEESt14default_deleteIS5_EEaSEOS8_
FNDA:946,_ZNSt15__uniq_ptr_implINSt7__cxx1112basic_stringIcSt11char_traitsIcESaIcEEESt14default_deleteIS5_EE6_M_ptrEv
FNDA:0,_ZNSt15__uniq_ptr_implINSt7__cxx1118basic_stringstreamIcSt11char_traitsIcESaIcEEESt14default_deleteIS5_EE6_M_ptrEv
FNDA:0,_ZNKSt15__uniq_ptr_implINSt7__cxx1112basic_stringIcSt11char_traitsIcESaIcEEESt14default_deleteIS5_EE6_M_ptrEv
FNDA:0,_ZNKSt15__uniq_ptr_implINSt7__cxx1118basic_stringstreamIcSt11char_traitsIcESaIcEEESt14default_deleteIS5_EE6_M_ptrEv
FNDA:0,_ZNSt15__uniq_ptr_implINSt7__cxx1112basic_stringIcSt11char_traitsIcESaIcEEESt14default_deleteIS5_EE10_M_deleterEv
FNDA:0,_ZNSt15__uniq_ptr_implINSt7__cxx1118basic_stringstreamIcSt11char_traitsIcESaIcEEESt14default_deleteIS5_EE10_M_deleterEv
FNDA:0,_ZNSt15__uniq_ptr_implINSt7__cxx1112basic_stringIcSt11char_traitsIcESaIcEEESt14default_deleteIS5_EE5resetEPS5_
FNDA:0,_ZNSt15__uniq_ptr_implINSt7__cxx1112basic_stringIcSt11char_traitsIcESaIcEEESt14default_deleteIS5_EE7releaseEv
FNDA:0,_ZNSt15__uniq_ptr_dataINSt7__cxx1112basic_stringIcSt11char_traitsIcESaIcEEESt14default_deleteIS5_ELb1ELb1EEaSEOS8_
FNDA:178,_ZNSt10unique_ptrINSt7__cxx1112basic_stringIcSt11char_traitsIcESaIcEEESt14default_deleteIS5_EEC2IS7_vEEv
FNDA:0,_ZNSt10unique_ptrINSt7__cxx1112basic_stringIcSt11char_traitsIcESaIcEEESt14default_deleteIS5_EEC2IS7_vEEPS5_
FNDA:946,_ZNSt10unique_ptrINSt7__cxx1112basic_stringIcSt11char_traitsIcESaIcEEESt14default_deleteIS5_EED2Ev
FNDA:0,_ZNSt10unique_ptrINSt7__cxx1118basic_stringstreamIcSt11char_traitsIcESaIcEEESt14default_deleteIS5_EED2Ev
FNDA:0,_ZNSt10unique_ptrINSt7__cxx1112basic_stringIcSt11char_traitsIcESaIcEEESt14default_deleteIS5_EEaSEOS8_
FNDA:0,_ZNKSt10unique_ptrINSt7__cxx1118basic_stringstreamIcSt11char_traitsIcESaIcEEESt14default_deleteIS5_EEdeEv
FNDA:0,_ZNKSt10unique_ptrINSt7__cxx1112basic_stringIcSt11char_traitsIcESaIcEEESt14default_deleteIS5_EEptEv
FNDA:0,_ZNKSt10unique_ptrINSt7__cxx1112basic_stringIcSt11char_traitsIcESaIcEEESt14default_deleteIS5_EE3getEv
FNDA:0,_ZNKSt10unique_ptrINSt7__cxx1118basic_stringstreamIcSt11char_traitsIcESaIcEEESt14default_deleteIS5_EE3getEv
FNDA:0,_ZNSt10unique_ptrINSt7__cxx1112basic_stringIcSt11char_traitsIcESaIcEEESt14default_deleteIS5_EE11get_deleterEv
FNDA:0,_ZNSt10unique_ptrINSt7__cxx1118basic_stringstreamIcSt11char_traitsIcESaIcEEESt14default_deleteIS5_EE11get_deleterEv
FNDA:0,_ZNKSt10unique_ptrINSt7__cxx1112basic_stringIcSt11char_traitsIcESaIcEEESt14default_deleteIS5_EEcvbEv
FNDA:0,_ZSteqINSt7__cxx1112basic_stringIcSt11char_traitsIcESaIcEEESt14default_deleteIS5_EEbRKSt10unique_ptrIT_T0_EDn
FNDA:0,_ZStneINSt7__cxx1112basic_stringIcSt11char_traitsIcESaIcEEESt14default_deleteIS5_EEbRKSt10unique_ptrIT_T0_EDn
FNDA:0,_ZNKSt14default_deleteINSt7__cxx1112basic_stringIcSt11char_traitsIcESaIcEEEEclEPS5_
FNDA:0,_ZNKSt14default_deleteINSt7__cxx1118basic_stringstreamIcSt11char_traitsIcESaIcEEEEclEPS5_
FNF:29
FNH:4
DA:93,0
DA:99,0
DA:100,0
DA:174,178
DA:176,0
DA:189,0
DA:191,0
DA:192,0
DA:193,0
DA:197,946
DA:199,0
DA:201,0
DA:206,0
DA:208,0
DA:209,0
DA:210,0
DA:211,0
DA:212,0
DA:215,0
DA:217,0
DA:218,0
DA:219,0
DA:243,0
DA:304,178
DA:305,178
DA:306,178
DA:317,0
DA:318,0
DA:319,0
DA:398,946
DA:402,946
DA:403,946
DA:404,0
DA:405,946
DA:406,946
DA:414,0
DA:451,0
DA:453,0
DA:454,0
DA:460,0
DA:463,0
DA:469,0
DA:470,0
DA:475,0
DA:476,0
DA:486,0
DA:487,0
DA:837,0
DA:838,0
DA:861,0
DA:862,0
DA:1069,0
DA:1070,0
LF:53
LH:10
end_of_record
TN:
SF:/usr/include/c++/13/bits/vector.tcc
FN:111,127,_ZNSt6vectorISt4pairIiiESaIS1_EE12emplace_backIJS1_EEERS1_DpOT_
FN:270,290,_ZNSt6vectorIPN23SeparateChainingHashMapIiNSt7__cxx1112basic_stringIcSt11char_traitsIcESaIcEEEE4NodeESaIS9_EE14_M_fill_assignEmRKS9_
FN:270,290,_ZNSt6vectorIPN23SeparateChainingHashMapIiiE4NodeESaIS3_EE14_M_fill_assignEmRKS3_
FN:445,524,_ZNSt6vectorISt4pairIiiESaIS1_EE17_M_realloc_insertIJS1_EEEvN9__gnu_cxx17__normal_iteratorIPS1_S3_EEDpOT_
FNDA:4,_ZNSt6vectorISt4pairIiiESaIS1_EE12emplace_backIJS1_EEERS1_DpOT_
FNDA:22,_ZNSt6vectorIPN23SeparateChainingHashMapIiNSt7__cxx1112basic_stringIcSt11char_traitsIcESaIcEEEE4NodeESaIS9_EE14_M_fill_assignEmRKS9_
FNDA:10,_ZNSt6vectorIPN23SeparateChainingHashMapIiiE4NodeESaIS3_EE14_M_fill_assignEmRKS3_
FNDA:4,_ZNSt6vectorISt4pairIiiESaIS1_EE17_M_realloc_insertIJS1_EEEvN9__gnu_cxx17__normal_iteratorIPS1_S3_EEDpOT_
FNF:4
FNH:4
DA:111,4
DA:114,4
DA:117,0
DA:119,0
DA:123,4
DA:125,4
DA:270,32
DA:273,32
DA:275,0
DA:276,0
DA:277,0
DA:278,32
DA:280,0
DA:281,0
DA:283,0
DA:284,0
DA:285,0
DA:289,32
DA:290,32
DA:445,4
DA:455,4
DA:456,4
DA:457,4
DA:458,4
DA:459,4
DA:460,4
DA:468,4
DA:469,4
DA:475,4
DA:480,4
DA:481,4
DA:483,4
DA:485,4
DA:486,4
DA:519,4
DA:520,4
DA:521,4
DA:522,4
DA:523,4
DA:524,4
LF:40
LH:30
end_of_record
TN:
SF:/usr/include/c++/13/ext/alloc_traits.h
FNF:0
FNH:0
DA:98,0
LF:1
LH:0
end_of_record
TN:
SF:/usr/include/c++/13/initializer_list
FN:69,69,_ZNKSt16initializer_listIiE4sizeEv
FN:73,73,_ZNKSt16initializer_listIiE5beginEv
FN:77,77,_ZNKSt16initializer_listIiE3endEv
FNDA:142,_ZNKSt16initializer_listIiE4sizeEv
FNDA:204,_ZNKSt16initializer_listIiE5beginEv
FNDA:102,_ZNKSt16initializer_listIiE3endEv
FNF:3
FNH:3
DA:69,142
DA:73,204
DA:77,102
LF:3
LH:3
end_of_record
TN:
SF:/usr/include/c++/13/new
FN:174,175,_ZnwmPv
FNDA:6,_ZnwmPv
FNF:1
FNH:1
DA:174,6
DA:175,6
LF:2
LH:2
end_of_record
TN:
SF:/usr/include/c++/13/tuple
FN:125,125,_ZNSt10_Head_baseILm1ESt14default_deleteINSt7__cxx1112basic_stringIcSt11char_traitsIcESaIcEEEELb1EE7_M_headERS8_
FN:125,125,_ZNSt10_Head_baseILm1ESt14default_deleteINSt7__cxx1118basic_stringstreamIcSt11char_traitsIcESaIcEEEELb1EE7_M_headERS8_
FN:1317,1319,_ZNSt5tupleIJPNSt7__cxx1112basic_stringIcSt11char_traitsIcESaIcEEESt14default_deleteIS5_EEEC2ILb1ELb1EEEv
FN:1787,1788,_ZSt12__get_helperILm0EPNSt7__cxx1112basic_stringIcSt11char_traitsIcESaIcEEEJSt14default_deleteIS5_EEERT0_RSt11_Tuple_implIXT_EJS9_DpT1_EE
FN:1787,1788,_ZSt12__get_helperILm0EPNSt7__cxx1118basic_stringstreamIcSt11char_traitsIcESaIcEEEJSt14default_deleteIS5_EEERT0_RSt11_Tuple_implIXT_EJS9_DpT1_EE
FN:1787,1788,_ZSt12__get_helperILm1ESt14default_deleteINSt7__cxx1112basic_stringIcSt11char_traitsIcESaIcEEEEJEERT0_RSt11_Tuple_implIXT_EJS8_DpT1_EE
FN:1787,1788,_ZSt12__get_helperILm1ESt14default_deleteINSt7__cxx1118basic_stringstreamIcSt11char_traitsIcESaIcEEEEJEERT0_RSt11_Tuple_implIXT_EJS8_DpT1_EE
FN:1792,1793,_ZSt12__get_helperILm0EPNSt7__cxx1112basic_stringIcSt11char_traitsIcESaIcEEEJSt14default_deleteIS5_EEERKT0_RKSt11_Tuple_implIXT_EJS9_DpT1_EE
FN:1792,1793,_ZSt12__get_helperILm0EPNSt7__cxx1118basic_stringstreamIcSt11char_traitsIcESaIcEEEJSt14default_deleteIS5_EEERKT0_RKSt11_Tuple_implIXT_EJS9_DpT1_EE
FN:1803,1804,_ZSt3getILm0EJPNSt7__cxx1112basic_stringIcSt11char_traitsIcESaIcEEESt14default_deleteIS5_EEERNSt13tuple_elementIXT_ESt5tupleIJDpT0_EEE4typeERSD_
FN:1803,1804,_ZSt3getILm0EJPNSt7__cxx1118basic_stringstreamIcSt11char_traitsIcESaIcEEESt14default_deleteIS5_EEERNSt13tuple_elementIXT_ESt5tupleIJDpT0_EEE4typeERSD_
FN:1803,1804,_ZSt3getILm1EJPNSt7__cxx1112basic_stringIcSt11char_traitsIcESaIcEEESt14default_deleteIS5_EEERNSt13tuple_elementIXT_ESt5tupleIJDpT0_EEE4typeERSD_
FN:1803,1804,_ZSt3getILm1EJPNSt7__cxx1118basic_stringstreamIcSt11char_traitsIcESaIcEEESt14default_deleteIS5_EEERNSt13tuple_elementIXT_ESt5tupleIJDpT0_EEE4typeERSD_
FN:1809,1810,_ZSt3getILm0EJPNSt7__cxx1112basic_stringIcSt11char_traitsIcESaIcEEESt14default_deleteIS5_EEERKNSt13tuple_elementIXT_ESt5tupleIJDpT0_EEE4typeERKSD_
FN:1809,1810,_ZSt3getILm0EJPNSt7__cxx1118basic_stringstreamIcSt11char_traitsIcESaIcEEESt14default_deleteIS5_EEERKNSt13tuple_elementIXT_ESt5tupleIJDpT0_EEE4typeERKSD_
FN:190,191,_ZNSt10_Head_baseILm0EPNSt7__cxx1112basic_stringIcSt11char_traitsIcESaIcEEELb0EEC2Ev
FN:234,234,_ZNSt10_Head_baseILm0EPNSt7__cxx1112basic_stringIcSt11char_traitsIcESaIcEEELb0EE7_M_headERS7_
FN:234,234,_ZNSt10_Head_baseILm0EPNSt7__cxx1118basic_stringstreamIcSt11char_traitsIcESaIcEEELb0EE7_M_headERS7_
FN:237,237,_ZNSt10_Head_baseILm0EPNSt7__cxx1112basic_stringIcSt11char_traitsIcESaIcEEELb0EE7_M_headERKS7_
FN:237,237,_ZNSt10_Head_baseILm0EPNSt7__cxx1118basic_stringstreamIcSt11char_traitsIcESaIcEEELb0EE7_M_headERKS7_
FN:269,269,_ZNSt11_Tuple_implILm0EJPNSt7__cxx1112basic_stringIcSt11char_traitsIcESaIcEEESt14default_deleteIS5_EEE7_M_headERS9_
FN:269,269,_ZNSt11_Tuple_implILm0EJPNSt7__cxx1118basic_stringstreamIcSt11char_traitsIcESaIcEEESt14default_deleteIS5_EEE7_M_headERS9_
FN:272,272,_ZNSt11_Tuple_implILm0EJPNSt7__cxx1112basic_stringIcSt11char_traitsIcESaIcEEESt14default_deleteIS5_EEE7_M_headERKS9_
FN:272,272,_ZNSt11_Tuple_implILm0EJPNSt7__cxx1118basic_stringstreamIcSt11char_traitsIcESaIcEEESt14default_deleteIS5_EEE7_M_headERKS9_
FN:280,281,_ZNSt11_Tuple_implILm0EJPNSt7__cxx1112basic_stringIcSt11char_traitsIcESaIcEEESt14default_deleteIS5_EEEC2Ev
FN:497,497,_ZNSt11_Tuple_implILm1EJSt14default_deleteINSt7__cxx1112basic_stringIcSt11char_traitsIcESaIcEEEEEE7_M_headERS8_
FN:497,497,_ZNSt11_Tuple_implILm1EJSt14default_deleteINSt7__cxx1118basic_stringstreamIcSt11char_traitsIcESaIcEEEEEE7_M_headERS8_
FN:503,504,_ZNSt11_Tuple_implILm1EJSt14default_deleteINSt7__cxx1112basic_stringIcSt11char_traitsIcESaIcEEEEEEC2Ev
FN:81,82,_ZNSt10_Head_baseILm1ESt14default_deleteINSt7__cxx1112basic_stringIcSt11char_traitsIcESaIcEEEELb1EEC2Ev
FNDA:0,_ZNSt10_Head_baseILm1ESt14default_deleteINSt7__cxx1112basic_stringIcSt11char_traitsIcESaIcEEEELb1EE7_M_headERS8_
FNDA:0,_ZNSt10_Head_baseILm1ESt14default_deleteINSt7__cxx1118basic_stringstreamIcSt11char_traitsIcESaIcEEEELb1EE7_M_headERS8_
FNDA:178,_ZNSt5tupleIJPNSt7__cxx1112basic_stringIcSt11char_traitsIcESaIcEEESt14default_deleteIS5_EEEC2ILb1ELb1EEEv
FNDA:946,_ZSt12__get_helperILm0EPNSt7__cxx1112basic_stringIcSt11char_traitsIcESaIcEEEJSt14default_deleteIS5_EEERT0_RSt11_Tuple_implIXT_EJS9_DpT1_EE
FNDA:0,_ZSt12__get_helperILm0EPNSt7__cxx1118basic_stringstreamIcSt11char_traitsIcESaIcEEEJSt14default_deleteIS5_EEERT0_RSt11_Tuple_implIXT_EJS9_DpT1_EE
FNDA:0,_ZSt12__get_helperILm1ESt14default_deleteINSt7__cxx1112basic_stringIcSt11char_traitsIcESaIcEEEEJEERT0_RSt11_Tuple_implIXT_EJS8_DpT1_EE
FNDA:0,_ZSt12__get_helperILm1ESt14default_deleteINSt7__cxx1118basic_stringstreamIcSt11char_traitsIcESaIcEEEEJEERT0_RSt11_Tuple_implIXT_EJS8_DpT1_EE
FNDA:0,_ZSt12__get_helperILm0EPNSt7__cxx1112basic_stringIcSt11char_traitsIcESaIcEEEJSt14default_deleteIS5_EEERKT0_RKSt11_Tuple_implIXT_EJS9_DpT1_EE
FNDA:0,_ZSt12__get_helperILm0EPNSt7__cxx1118basic_stringstreamIcSt11char_traitsIcESaIcEEEJSt14default_deleteIS5_EEERKT0_RKSt11_Tuple_implIXT_EJS9_DpT1_EE
FNDA:946,_ZSt3getILm0EJPNSt7__cxx1112basic_stringIcSt11char_traitsIcESaIcEEESt14default_deleteIS5_EEERNSt13tuple_elementIXT_ESt5tupleIJDpT0_EEE4typeERSD_
FNDA:0,_ZSt3getILm0EJPNSt7__cxx1118basic_stringstreamIcSt11char_traitsIcESaIcEEESt14default_deleteIS5_EEERNSt13tuple_elementIXT_ESt5tupleIJDpT0_EEE4typeERSD_
FNDA:0,_ZSt3getILm1EJPNSt7__cxx1112basic_stringIcSt11char_traitsIcESaIcEEESt14default_deleteIS5_EEERNSt13tuple_elementIXT_ESt5tupleIJDpT0_EEE4typeERSD_
FNDA:0,_ZSt3getILm1EJPNSt7__cxx1118basic_stringstreamIcSt11char_traitsIcESaIcEEESt14default_deleteIS5_EEERNSt13tuple_elementIXT_ESt5tupleIJDpT0_EEE4typeERSD_
FNDA:0,_ZSt3getILm0EJPNSt7__cxx1112basic_stringIcSt11char_traitsIcESaIcEEESt14default_deleteIS5_EEERKNSt13tuple_elementIXT_ESt5tupleIJDpT0_EEE4typeERKSD_
FNDA:0,_ZSt3getILm0EJPNSt7__cxx1118basic_stringstreamIcSt11char_traitsIcESaIcEEESt14default_deleteIS5_EEERKNSt13tuple_elementIXT_ESt5tupleIJDpT0_EEE4typeERKSD_
FNDA:178,_ZNSt10_Head_baseILm0EPNSt7__cxx1112basic_stringIcSt11char_traitsIcESaIcEEELb0EEC2Ev
FNDA:946,_ZNSt10_Head_baseILm0EPNSt7__cxx1112basic_stringIcSt11char_traitsIcESaIcEEELb0EE7_M_headERS7_
FNDA:0,_ZNSt10_Head_baseILm0EPNSt7__cxx1118basic_stringstreamIcSt11char_traitsIcESaIcEEELb0EE7_M_headERS7_
FNDA:0,_ZNSt10_Head_baseILm0EPNSt7__cxx1112basic_stringIcSt11char_traitsIcESaIcEEELb0EE7_M_headERKS7_
FNDA:0,_ZNSt10_Head_baseILm0EPNSt7__cxx1118basic_stringstreamIcSt11char_traitsIcESaIcEEELb0EE7_M_headERKS7_
FNDA:946,_ZNSt11_Tuple_implILm0EJPNSt7__cxx1112basic_stringIcSt11char_traitsIcESaIcEEESt14default_deleteIS5_EEE7_M_headERS9_
FNDA:0,_ZNSt11_Tuple_implILm0EJPNSt7__cxx1118basic_stringstreamIcSt11char_traitsIcESaIcEEESt14default_deleteIS5_EEE7_M_headERS9_
FNDA:0,_ZNSt11_Tuple_implILm0EJPNSt7__cxx1112basic_stringIcSt11char_traitsIcESaIcEEESt14default_deleteIS5_EEE7_M_headERKS9_
FNDA:0,_ZNSt11_Tuple_implILm0EJPNSt7__cxx1118basic_stringstreamIcSt11char_traitsIcESaIcEEESt14default_deleteIS5_EEE7_M_headERKS9_
FNDA:178,_ZNSt11_Tuple_implILm0EJPNSt7__cxx1112basic_stringIcSt11char_traitsIcESaIcEEESt14default_deleteIS5_EEEC2Ev
FNDA:0,_ZNSt11_Tuple_implILm1EJSt14default_deleteINSt7__cxx1112basic_stringIcSt11char_traitsIcESaIcEEEEEE7_M_headERS8_
FNDA:0,_ZNSt11_Tuple_implILm1EJSt14default_deleteINSt7__cxx1118basic_stringstreamIcSt11char_traitsIcESaIcEEEEEE7_M_headERS8_
FNDA:178,_ZNSt11_Tuple_implILm1EJSt14default_deleteINSt7__cxx1112basic_stringIcSt11char_traitsIcESaIcEEEEEEC2Ev
FNDA:178,_ZNSt10_Head_baseILm1ESt14default_deleteINSt7__cxx1112basic_stringIcSt11char_traitsIcESaIcEEEELb1EEC2Ev
FNF:29
FNH:9
DA:81,178
DA:82,178
DA:125,0
DA:190,178
DA:191,178
DA:234,946
DA:237,0
DA:269,946
DA:272,0
DA:280,178
DA:281,178
DA:497,0
DA:503,178
DA:504,178
DA:1317,178
DA:1319,178
DA:1787,946
DA:1788,946
DA:1792,0
DA:1793,0
DA:1803,946
DA:1804,946
DA:1809,0
DA:1810,0
LF:24
LH:16
end_of_record
TN:
SF:/usr/include/c++/13/typeinfo
FN:103,104,_ZNKSt9type_info4nameEv
FNDA:0,_ZNKSt9type_info4nameEv
FNF:1
FNH:0
DA:103,0
DA:104,0
LF:2
LH:0
end_of_record
TN:
SF:/usr/include/gtest/gtest-assertion-result.h
FN:155,161,_ZN7testing15AssertionResultC2IbEERKT_PNSt9enable_ifIXntsrSt14is_convertibleIS2_S0_E5valueEvE4typeE
FN:174,174,_ZNK7testing15AssertionResultcvbEv
FN:183,185,_ZNK7testing15AssertionResult7messageEv
FN:187,187,_ZNK7testing15AssertionResult15failure_messageEv
FN:191,194,_ZN7testing15AssertionResultlsIA12_cEERS0_RKT_
FN:191,194,_ZN7testing15AssertionResultlsIA3_cEERS0_RKT_
FN:191,194,_ZN7testing15AssertionResultlsIA5_cEERS0_RKT_
FN:191,194,_ZN7testing15AssertionResultlsINSt7__cxx1112basic_stringIcSt11char_traitsIcESaIcEEEEERS0_RKT_
FN:191,194,_ZN7testing15AssertionResultlsIPKcEERS0_RKT_
FN:206,209,_ZN7testing15AssertionResult13AppendMessageERKNS_7MessageE
FNDA:178,_ZN7testing15AssertionResultC2IbEERKT_PNSt9enable_ifIXntsrSt14is_convertibleIS2_S0_E5valueEvE4typeE
FNDA:946,_ZNK7testing15AssertionResultcvbEv
FNDA:0,_ZNK7testing15AssertionResult7messageEv
FNDA:0,_ZNK7testing15AssertionResult15failure_messageEv
FNDA:0,_ZN7testing15AssertionResultlsIA12_cEERS0_RKT_
FNDA:0,_ZN7testing15AssertionResultlsIA3_cEERS0_RKT_
FNDA:0,_ZN7testing15AssertionResultlsIA5_cEERS0_RKT_
FNDA:0,_ZN7testing15AssertionResultlsINSt7__cxx1112basic_stringIcSt11char_traitsIcESaIcEEEEERS0_RKT_
FNDA:0,_ZN7testing15AssertionResultlsIPKcEERS0_RKT_
FNDA:0,_ZN7testing15AssertionResult13AppendMessageERKNS_7MessageE
FNF:10
FNH:2
DA:155,178
DA:161,178
DA:174,946
DA:183,0
DA:184,0
DA:187,0
DA:191,0
DA:192,0
DA:193,0
DA:206,0
DA:207,0
DA:208,0
DA:209,0
LF:13
LH:3
end_of_record
TN:
SF:/usr/include/gtest/gtest-message.h
FN:132,150,_ZN7testing7MessagelsIA12_cEERS0_RKT_
FN:132,150,_ZN7testing7MessagelsIA3_cEERS0_RKT_
FN:132,150,_ZN7testing7MessagelsIA5_cEERS0_RKT_
FN:132,150,_ZN7testing7MessagelsINSt7__cxx1112basic_stringIcSt11char_traitsIcESaIcEEEEERS0_RKT_
FN:182,189,_ZN7testing7MessagelsIKcEERS0_RKPT_
FNDA:0,_ZN7testing7MessagelsIA12_cEERS0_RKT_
FNDA:0,_ZN7testing7MessagelsIA3_cEERS0_RKT_
FNDA:0,_ZN7testing7MessagelsIA5_cEERS0_RKT_
FNDA:0,_ZN7testing7MessagelsINSt7__cxx1112basic_stringIcSt11char_traitsIcESaIcEEEEERS0_RKT_
FNDA:0,_ZN7testing7MessagelsIKcEERS0_RKPT_
FNF:5
FNH:0
DA:132,0
DA:148,0
DA:149,0
DA:182,0
DA:183,0
DA:184,0
DA:186,0
DA:188,0
LF:8
LH:0
end_of_record
TN:
SF:/usr/include/gtest/gtest-printers.h
FN:1017,1023,_ZN7testing8internal21UniversalTersePrinterIPKcE5PrintES3_PSo
FN:1108,1113,_ZN7testing8internal14UniversalPrintINSt7__cxx1112basic_stringIcSt11char_traitsIcESaIcEEEEEvRKT_PSo
FN:1108,1113,_ZN7testing8internal14UniversalPrintIiEEvRKT_PSo
FN:1108,1113,_ZN7testing8internal14UniversalPrintIjEEvRKT_PSo
FN:1108,1113,_ZN7testing8internal14UniversalPrintImEEvRKT_PSo
FN:1148,1152,_ZN7testing13PrintToStringINSt7__cxx1112basic_stringIcSt11char_traitsIcESaIcEEEEES6_RKT_
FN:1148,1152,_ZN7testing13PrintToStringIPKcEENSt7__cxx1112basic_stringIcSt11char_traitsIcESaIcEEERKT_
FN:1148,1152,_ZN7testing13PrintToStringIiEENSt7__cxx1112basic_stringIcSt11char_traitsIcESaIcEEERKT_
FN:1148,1152,_ZN7testing13PrintToStringIjEENSt7__cxx1112basic_stringIcSt11char_traitsIcESaIcEEERKT_
FN:1148,1152,_ZN7testing13PrintToStringImEENSt7__cxx1112basic_stringIcSt11char_traitsIcESaIcEEERKT_
FN:221,226,_ZN7testing8internal52internal_stream_operator_without_lexical_name_lookup13StreamPrinter10PrintValueIivEEDTcvvlsdefp0_fp_ERKT_PSo
FN:221,226,_ZN7testing8internal52internal_stream_operator_without_lexical_name_lookup13StreamPrinter10PrintValueIjvEEDTcvvlsdefp0_fp_ERKT_PSo
FN:221,226,_ZN7testing8internal52internal_stream_operator_without_lexical_name_lookup13StreamPrinter10PrintValueImvEEDTcvvlsdefp0_fp_ERKT_PSo
FN:326,337,_ZN7testing8internal17PrintWithFallbackIiEEvRKT_PSo
FN:326,337,_ZN7testing8internal17PrintWithFallbackIjEEvRKT_PSo
FN:326,337,_ZN7testing8internal17PrintWithFallbackImEEvRKT_PSo
FN:357,359,_ZN7testing8internal19FormatForComparisonINSt7__cxx1112basic_stringIcSt11char_traitsIcESaIcEEEA4_cE6FormatERKS7_
FN:357,359,_ZN7testing8internal19FormatForComparisonIiiE6FormatB5cxx11ERKi
FN:357,359,_ZN7testing8internal19FormatForComparisonIimE6FormatB5cxx11ERKi
FN:357,359,_ZN7testing8internal19FormatForComparisonIjmE6FormatB5cxx11ERKj
FN:357,359,_ZN7testing8internal19FormatForComparisonImiE6FormatB5cxx11ERKm
FN:357,359,_ZN7testing8internal19FormatForComparisonImjE6FormatB5cxx11ERKm
FN:357,359,_ZN7testing8internal19FormatForComparisonImmE6FormatB5cxx11ERKm
FN:366,368,_ZN7testing8internal19FormatForComparisonIA4_cNSt7__cxx1112basic_stringIcSt11char_traitsIcESaIcEEEE6FormatEPKc
FN:411,411,_ZN7testing8internal19FormatForComparisonIPKcNSt7__cxx1112basic_stringIcSt11char_traitsIcESaIcEEEE6FormatES3_
FN:437,440,_ZN7testing8internal33FormatForComparisonFailureMessageIA4_cNSt7__cxx1112basic_stringIcSt11char_traitsIcESaIcEEEEES8_RKT_RKT0_
FN:437,440,_ZN7testing8internal33FormatForComparisonFailureMessageINSt7__cxx1112basic_stringIcSt11char_traitsIcESaIcEEEA4_cEES7_RKT_RKT0_
FN:437,440,_ZN7testing8internal33FormatForComparisonFailureMessageIiiEENSt7__cxx1112basic_stringIcSt11char_traitsIcESaIcEEERKT_RKT0_
FN:437,440,_ZN7testing8internal33FormatForComparisonFailureMessageIimEENSt7__cxx1112basic_stringIcSt11char_traitsIcESaIcEEERKT_RKT0_
FN:437,440,_ZN7testing8internal33FormatForComparisonFailureMessageIjmEENSt7__cxx1112basic_stringIcSt11char_traitsIcESaIcEEERKT_RKT0_
FN:437,440,_ZN7testing8internal33FormatForComparisonFailureMessageImiEENSt7__cxx1112basic_stringIcSt11char_traitsIcESaIcEEERKT_RKT0_
FN:437,440,_ZN7testing8internal33FormatForComparisonFailureMessageImjEENSt7__cxx1112basic_stringIcSt11char_traitsIcESaIcEEERKT_RKT0_
FN:437,440,_ZN7testing8internal33FormatForComparisonFailureMessageImmEENSt7__cxx1112basic_stringIcSt11char_traitsIcESaIcEEERKT_RKT0_
FN:464,466,_ZN7testing8internal7PrintToIiEEvRKT_PSo
FN:464,466,_ZN7testing8internal7PrintToIjEEvRKT_PSo
FN:464,466,_ZN7testing8internal7PrintToImEEvRKT_PSo
FN:660,662,_ZN7testing8internal7PrintToERKNSt7__cxx1112basic_stringIcSt11char_traitsIcESaIcEEEPSo
FN:799,809,_ZN7testing8internal16UniversalPrinterINSt7__cxx1112basic_stringIcSt11char_traitsIcESaIcEEEE5PrintERKS7_PSo
FN:799,809,_ZN7testing8internal16UniversalPrinterIiE5PrintERKiPSo
FN:799,809,_ZN7testing8internal16UniversalPrinterIjE5PrintERKjPSo
FN:799,809,_ZN7testing8internal16UniversalPrinterImE5PrintERKmPSo
FN:989,991,_ZN7testing8internal21UniversalTersePrinterINSt7__cxx1112basic_stringIcSt11char_traitsIcESaIcEEEE5PrintERKS7_PSo
FN:989,991,_ZN7testing8internal21UniversalTersePrinterIiE5PrintERKiPSo
FN:989,991,_ZN7testing8internal21UniversalTersePrinterIjE5PrintERKjPSo
FN:989,991,_ZN7testing8internal21UniversalTersePrinterImE5PrintERKmPSo
FNDA:0,_ZN7testing8internal21UniversalTersePrinterIPKcE5PrintES3_PSo
FNDA:0,_ZN7testing8internal14UniversalPrintINSt7__cxx1112basic_stringIcSt11char_traitsIcESaIcEEEEEvRKT_PSo
FNDA:0,_ZN7testing8internal14UniversalPrintIiEEvRKT_PSo
FNDA:0,_ZN7testing8internal14UniversalPrintIjEEvRKT_PSo
FNDA:0,_ZN7testing8internal14UniversalPrintImEEvRKT_PSo
FNDA:0,_ZN7testing13PrintToStringINSt7__cxx1112basic_stringIcSt11char_traitsIcESaIcEEEEES6_RKT_
FNDA:0,_ZN7testing13PrintToStringIPKcEENSt7__cxx1112basic_stringIcSt11char_traitsIcESaIcEEERKT_
FNDA:0,_ZN7testing13PrintToStringIiEENSt7__cxx1112basic_stringIcSt11char_traitsIcESaIcEEERKT_
FNDA:0,_ZN7testing13PrintToStringIjEENSt7__cxx1112basic_stringIcSt11char_traitsIcESaIcEEERKT_
FNDA:0,_ZN7testing13PrintToStringImEENSt7__cxx1112basic_stringIcSt11char_traitsIcESaIcEEERKT_
FNDA:0,_ZN7testing8internal52internal_stream_operator_without_lexical_name_lookup13StreamPrinter10PrintValueIivEEDTcvvlsdefp0_fp_ERKT_PSo
FNDA:0,_ZN7testing8internal52internal_stream_operator_without_lexical_name_lookup13StreamPrinter10PrintValueIjvEEDTcvvlsdefp0_fp_ERKT_PSo
FNDA:0,_ZN7testing8internal52internal_stream_operator_without_lexical_name_lookup13StreamPrinter10PrintValueImvEEDTcvvlsdefp0_fp_ERKT_PSo
FNDA:0,_ZN7testing8internal17PrintWithFallbackIiEEvRKT_PSo
FNDA:0,_ZN7testing8internal17PrintWithFallbackIjEEvRKT_PSo
FNDA:0,_ZN7testing8internal17PrintWithFallbackImEEvRKT_PSo
FNDA:0,_ZN7testing8internal19FormatForComparisonINSt7__cxx1112basic_stringIcSt11char_traitsIcESaIcEEEA4_cE6FormatERKS7_
FNDA:0,_ZN7testing8internal19FormatForComparisonIiiE6FormatB5cxx11ERKi
FNDA:0,_ZN7testing8internal19FormatForComparisonIimE6FormatB5cxx11ERKi
FNDA:0,_ZN7testing8internal19FormatForComparisonIjmE6FormatB5cxx11ERKj
FNDA:0,_ZN7testing8internal19FormatForComparisonImiE6FormatB5cxx11ERKm
FNDA:0,_ZN7testing8internal19FormatForComparisonImjE6FormatB5cxx11ERKm
FNDA:0,_ZN7testing8internal19FormatForComparisonImmE6FormatB5cxx11ERKm
FNDA:0,_ZN7testing8internal19FormatForComparisonIA4_cNSt7__cxx1112basic_stringIcSt11char_traitsIcESaIcEEEE6FormatEPKc
FNDA:0,_ZN7testing8internal19FormatForComparisonIPKcNSt7__cxx1112basic_stringIcSt11char_traitsIcESaIcEEEE6FormatES3_
FNDA:0,_ZN7testing8internal33FormatForComparisonFailureMessageIA4_cNSt7__cxx1112basic_stringIcSt11char_traitsIcESaIcEEEEES8_RKT_RKT0_
FNDA:0,_ZN7testing8internal33FormatForComparisonFailureMessageINSt7__cxx1112basic_stringIcSt11char_traitsIcESaIcEEEA4_cEES7_RKT_RKT0_
FNDA:0,_ZN7testing8internal33FormatForComparisonFailureMessageIiiEENSt7__cxx1112basic_stringIcSt11char_traitsIcESaIcEEERKT_RKT0_
FNDA:0,_ZN7testing8internal33FormatForComparisonFailureMessageIimEENSt7__cxx1112basic_stringIcSt11char_traitsIcESaIcEEERKT_RKT0_
FNDA:0,_ZN7testing8internal33FormatForComparisonFailureMessageIjmEENSt7__cxx1112basic_stringIcSt11char_traitsIcESaIcEEERKT_RKT0_
FNDA:0,_ZN7testing8internal33FormatForComparisonFailureMessageImiEENSt7__cxx1112basic_stringIcSt11char_traitsIcESaIcEEERKT_RKT0_
FNDA:0,_ZN7testing8internal33FormatForComparisonFailureMessageImjEENSt7__cxx1112basic_stringIcSt11char_traitsIcESaIcEEERKT_RKT0_
FNDA:0,_ZN7testing8internal33FormatForComparisonFailureMessageImmEENSt7__cxx1112basic_stringIcSt11char_traitsIcESaIcEEERKT_RKT0_
FNDA:0,_ZN7testing8internal7PrintToIiEEvRKT_PSo
FNDA:0,_ZN7testing8internal7PrintToIjEEvRKT_PSo
FNDA:0,_ZN7testing8internal7PrintToImEEvRKT_PSo
FNDA:0,_ZN7testing8internal7PrintToERKNSt7__cxx1112basic_stringIcSt11char_traitsIcESaIcEEEPSo
FNDA:0,_ZN7testing8internal16UniversalPrinterINSt7__cxx1112basic_stringIcSt11char_traitsIcESaIcEEEE5PrintERKS7_PSo
FNDA:0,_ZN7testing8internal16UniversalPrinterIiE5PrintERKiPSo
FNDA:0,_ZN7testing8internal16UniversalPrinterIjE5PrintERKjPSo
FNDA:0,_ZN7testing8internal16UniversalPrinterImE5PrintERKmPSo
FNDA:0,_ZN7testing8internal21UniversalTersePrinterINSt7__cxx1112basic_stringIcSt11char_traitsIcESaIcEEEE5PrintERKS7_PSo
FNDA:0,_ZN7testing8internal21UniversalTersePrinterIiE5PrintERKiPSo
FNDA:0,_ZN7testing8internal21UniversalTersePrinterIjE5PrintERKjPSo
FNDA:0,_ZN7testing8internal21UniversalTersePrinterImE5PrintERKmPSo
FNF:45
FNH:0
DA:221,0
DA:225,0
DA:226,0
DA:326,0
DA:336,0
DA:337,0
DA:357,0
DA:358,0
DA:366,0
DA:367,0
DA:411,0
DA:437,0
DA:439,0
DA:464,0
DA:465,0
DA:466,0
DA:660,0
DA:661,0
DA:662,0
DA:799,0
DA:808,0
DA:809,0
DA:989,0
DA:990,0
DA:991,0
DA:1017,0
DA:1018,0
DA:1019,0
DA:1021,0
DA:1023,0
DA:1108,0
DA:1112,0
DA:1113,0
DA:1148,0
DA:1149,0
DA:1150,0
DA:1151,0
DA:1152,0
LF:38
LH:0
end_of_record
TN:
SF:/usr/include/gtest/gtest.h
FN:1359,1365,_ZN7testing8internal18CmpHelperEQFailureINSt7__cxx1112basic_stringIcSt11char_traitsIcESaIcEEEA4_cEENS_15AssertionResultEPKcSB_RKT_RKT0_
FN:1359,1365,_ZN7testing8internal18CmpHelperEQFailureIiiEENS_15AssertionResultEPKcS4_RKT_RKT0_
FN:1359,1365,_ZN7testing8internal18CmpHelperEQFailureImiEENS_15AssertionResultEPKcS4_RKT_RKT0_
FN:1359,1365,_ZN7testing8internal18CmpHelperEQFailureImjEENS_15AssertionResultEPKcS4_RKT_RKT0_
FN:1359,1365,_ZN7testing8internal18CmpHelperEQFailureImmEENS_15AssertionResultEPKcS4_RKT_RKT0_
FN:1376,1384,_ZN7testing8internal11CmpHelperEQINSt7__cxx1112basic_stringIcSt11char_traitsIcESaIcEEEA4_cEENS_15AssertionResultEPKcSB_RKT_RKT0_
FN:1376,1384,_ZN7testing8internal11CmpHelperEQIiiEENS_15AssertionResultEPKcS4_RKT_RKT0_
FN:1376,1384,_ZN7testing8internal11CmpHelperEQImiEENS_15AssertionResultEPKcS4_RKT_RKT0_
FN:1376,1384,_ZN7testing8internal11CmpHelperEQImjEENS_15AssertionResultEPKcS4_RKT_RKT0_
FN:1376,1384,_ZN7testing8internal11CmpHelperEQImmEENS_15AssertionResultEPKcS4_RKT_RKT0_
FN:1395,1399,_ZN7testing8internal8EqHelper7CompareINSt7__cxx1112basic_stringIcSt11char_traitsIcESaIcEEEA4_cLPv0EEENS_15AssertionResultEPKcSD_RKT_RKT0_
FN:1395,1399,_ZN7testing8internal8EqHelper7CompareIiiLPv0EEENS_15AssertionResultEPKcS6_RKT_RKT0_
FN:1395,1399,_ZN7testing8internal8EqHelper7CompareImiLPv0EEENS_15AssertionResultEPKcS6_RKT_RKT0_
FN:1395,1399,_ZN7testing8internal8EqHelper7CompareImjLPv0EEENS_15AssertionResultEPKcS6_RKT_RKT0_
FN:1395,1399,_ZN7testing8internal8EqHelper7CompareImmLPv0EEENS_15AssertionResultEPKcS6_RKT_RKT0_
FN:1428,1435,_ZN7testing8internal18CmpHelperOpFailureImiEENS_15AssertionResultEPKcS4_RKT_RKT0_S4_
FN:1428,1435,_ZN7testing8internal18CmpHelperOpFailureImjEENS_15AssertionResultEPKcS4_RKT_RKT0_S4_
FN:1428,1435,_ZN7testing8internal18CmpHelperOpFailureImmEENS_15AssertionResultEPKcS4_RKT_RKT0_S4_
FN:1461,1461,_ZN7testing8internal11CmpHelperLTImmEENS_15AssertionResultEPKcS4_RKT_RKT0_
FN:1463,1463,_ZN7testing8internal11CmpHelperGEImiEENS_15AssertionResultEPKcS4_RKT_RKT0_
FN:1463,1463,_ZN7testing8internal11CmpHelperGEImjEENS_15AssertionResultEPKcS4_RKT_RKT0_
FN:256,256,_ZN7testing4Test14SetUpTestSuiteEv
FN:264,264,_ZN7testing4Test17TearDownTestSuiteEv
FN:269,269,_ZN7testing4Test16TearDownTestCaseEv
FN:270,270,_ZN7testing4Test13SetUpTestCaseEv
FN:357,357,_ZN7testing4Test5SetupEv
FNDA:0,_ZN7testing8internal18CmpHelperEQFailureINSt7__cxx1112basic_stringIcSt11char_traitsIcESaIcEEEA4_cEENS_15AssertionResultEPKcSB_RKT_RKT0_
FNDA:0,_ZN7testing8internal18CmpHelperEQFailureIiiEENS_15AssertionResultEPKcS4_RKT_RKT0_
FNDA:0,_ZN7testing8internal18CmpHelperEQFailureImiEENS_15AssertionResultEPKcS4_RKT_RKT0_
FNDA:0,_ZN7testing8internal18CmpHelperEQFailureImjEENS_15AssertionResultEPKcS4_RKT_RKT0_
FNDA:0,_ZN7testing8internal18CmpHelperEQFailureImmEENS_15AssertionResultEPKcS4_RKT_RKT0_
FNDA:16,_ZN7testing8internal11CmpHelperEQINSt7__cxx1112basic_stringIcSt11char_traitsIcESaIcEEEA4_cEENS_15AssertionResultEPKcSB_RKT_RKT0_
FNDA:656,_ZN7testing8internal11CmpHelperEQIiiEENS_15AssertionResultEPKcS4_RKT_RKT0_
FNDA:50,_ZN7testing8internal11CmpHelperEQImiEENS_15AssertionResultEPKcS4_RKT_RKT0_
FNDA:36,_ZN7testing8internal11CmpHelperEQImjEENS_15AssertionResultEPKcS4_RKT_RKT0_
FNDA:2,_ZN7testing8internal11CmpHelperEQImmEENS_15AssertionResultEPKcS4_RKT_RKT0_
FNDA:16,_ZN7testing8internal8EqHelper7CompareINSt7__cxx1112basic_stringIcSt11char_traitsIcESaIcEEEA4_cLPv0EEENS_15AssertionResultEPKcSD_RKT_RKT0_
FNDA:656,_ZN7testing8internal8EqHelper7CompareIiiLPv0EEENS_15AssertionResultEPKcS6_RKT_RKT0_
FNDA:50,_ZN7testing8internal8EqHelper7CompareImiLPv0EEENS_15AssertionResultEPKcS6_RKT_RKT0_
FNDA:36,_ZN7testing8internal8EqHelper7CompareImjLPv0EEENS_15AssertionResultEPKcS6_RKT_RKT0_
FNDA:2,_ZN7testing8internal8EqHelper7CompareImmLPv0EEENS_15AssertionResultEPKcS6_RKT_RKT0_
FNDA:0,_ZN7testing8internal18CmpHelperOpFailureImiEENS_15AssertionResultEPKcS4_RKT_RKT0_S4_
FNDA:0,_ZN7testing8internal18CmpHelperOpFailureImjEENS_15AssertionResultEPKcS4_RKT_RKT0_S4_
FNDA:0,_ZN7testing8internal18CmpHelperOpFailureImmEENS_15AssertionResultEPKcS4_RKT_RKT0_S4_
FNDA:2,_ZN7testing8internal11CmpHelperLTImmEENS_15AssertionResultEPKcS4_RKT_RKT0_
FNDA:4,_ZN7testing8internal11CmpHelperGEImiEENS_15AssertionResultEPKcS4_RKT_RKT0_
FNDA:2,_ZN7testing8internal11CmpHelperGEImjEENS_15AssertionResultEPKcS4_RKT_RKT0_
FNDA:0,_ZN7testing4Test14SetUpTestSuiteEv
FNDA:0,_ZN7testing4Test17TearDownTestSuiteEv
FNDA:0,_ZN7testing4Test16TearDownTestCaseEv
FNDA:0,_ZN7testing4Test13SetUpTestCaseEv
FNDA:0,_ZN7testing4Test5SetupEv
FNF:26
FNH:13
DA:256,0
DA:264,0
DA:269,0
DA:270,0
DA:357,0
DA:1359,0
DA:1364,0
DA:1376,760
DA:1379,760
DA:1380,760
DA:1383,0
DA:1395,760
DA:1398,760
DA:1428,0
DA:1432,0
DA:1433,0
DA:1434,0
DA:1461,2
DA:1463,6
LF:19
LH:7
end_of_record
TN:
SF:/usr/include/gtest/internal/gtest-internal.h
FN:438,438,_ZN7testing8internal15TestFactoryBaseD0Ev
FN:438,438,_ZN7testing8internal15TestFactoryBaseD2Ev
FN:445,445,_ZN7testing8internal15TestFactoryBaseC2Ev
FN:457,457,_ZN7testing8internal15TestFactoryImplI22ArrayTest_PopBack_TestE10CreateTestEv
FN:457,457,_ZN7testing8internal15TestFactoryImplI23ArrayTest_AtMethod_TestE10CreateTestEv
FN:457,457,_ZN7testing8internal15TestFactoryImplI23ArrayTest_FindTest_TestE10CreateTestEv
FN:457,457,_ZN7testing8internal15TestFactoryImplI23ArrayTest_PushBack_TestE10CreateTestEv
FN:457,457,_ZN7testing8internal15TestFactoryImplI24ArrayTest_EraseTest_TestE10CreateTestEv
FN:457,457,_ZN7testing8internal15TestFactoryImplI24ArrayTest_FrontBack_TestE10CreateTestEv
FN:457,457,_ZN7testing8internal15TestFactoryImplI24QueueTest_FindWorks_TestE10CreateTestEv
FN:457,457,_ZN7testing8internal15TestFactoryImplI24QueueTest_SizeWorks_TestE10CreateTestEv
FN:457,457,_ZN7testing8internal15TestFactoryImplI25ArrayTest_InsertTest_TestE10CreateTestEv
FN:457,457,_ZN7testing8internal15TestFactoryImplI25ArrayTest_RemoveTest_TestE10CreateTestEv
FN:457,457,_ZN7testing8internal15TestFactoryImplI25HashMapTest_ClearMap_TestE10CreateTestEv
FN:457,457,_ZN7testing8internal15TestFactoryImplI25HashMapTest_Contains_TestE10CreateTestEv
FN:457,457,_ZN7testing8internal15TestFactoryImplI25QueueTest_EmptyWorks_TestE10CreateTestEv
FN:457,457,_ZN7testing8internal15TestFactoryImplI26HashMapTest_RemoveKey_TestE10CreateTestEv
FN:457,457,_ZN7testing8internal15TestFactoryImplI26QueueTest_RemoveWorks_TestE10CreateTestEv
FN:457,457,_ZN7testing8internal15TestFactoryImplI27ArrayTest_ResizeToLeft_TestE10CreateTestEv
FN:457,457,_ZN7testing8internal15TestFactoryImplI28ForwardListTest_PopBack_TestE10CreateTestEv
FN:457,457,_ZN7testing8internal15TestFactoryImplI28LinkedListTest_AtNormal_TestE10CreateTestEv
FN:457,457,_ZN7testing8internal15TestFactoryImplI28LinkedListTest_PushBack_TestE10CreateTestEv
FN:457,457,_ZN7testing8internal15TestFactoryImplI28QueueTest_PushBackWorks_TestE10CreateTestEv
FN:457,457,_ZN7testing8internal15TestFactoryImplI29ForwardListTest_AtThrows_TestE10CreateTestEv
FN:457,457,_ZN7testing8internal15TestFactoryImplI29ForwardListTest_FindTest_TestE10CreateTestEv
FN:457,457,_ZN7testing8internal15TestFactoryImplI29ForwardListTest_PopFront_TestE10CreateTestEv
FN:457,457,_ZN7testing8internal15TestFactoryImplI29ForwardListTest_PushBack_TestE10CreateTestEv
FN:457,457,_ZN7testing8internal15TestFactoryImplI29ForwardListTest_SizeTest_TestE10CreateTestEv
FN:457,457,_ZN7testing8internal15TestFactoryImplI29HashMapTest_EmptyAndSize_TestE10CreateTestEv
FN:457,457,_ZN7testing8internal15TestFactoryImplI29HashMapTest_InsertAndGet_TestE10CreateTestEv
FN:457,457,_ZN7testing8internal15TestFactoryImplI29LinkedListTest_FindWorks_TestE10CreateTestEv
FN:457,457,_ZN7testing8internal15TestFactoryImplI29LinkedListTest_PushFront_TestE10CreateTestEv
FN:457,457,_ZN7testing8internal15TestFactoryImplI29QueueTest_AtReturnsFront_TestE10CreateTestEv
FN:457,457,_ZN7testing8internal15TestFactoryImplI30ArrayTest_CopyConstructor_TestE10CreateTestEv
FN:457,457,_ZN7testing8internal15TestFactoryImplI30ForwardListTest_ClearTest_TestE10CreateTestEv
FN:457,457,_ZN7testing8internal15TestFactoryImplI30ForwardListTest_EmptyTest_TestE10CreateTestEv
FN:457,457,_ZN7testing8internal15TestFactoryImplI30ForwardListTest_FrontBack_TestE10CreateTestEv
FN:457,457,_ZN7testing8internal15TestFactoryImplI30ForwardListTest_PushFront_TestE10CreateTestEv
FN:457,457,_ZN7testing8internal15TestFactoryImplI30HashMapTest_ContainsWorks_TestE10CreateTestEv
FN:457,457,_ZN7testing8internal15TestFactoryImplI30HashMapTest_ItemsFunction_TestE10CreateTestEv
FN:457,457,_ZN7testing8internal15TestFactoryImplI30LinkedListTest_ClearWorks_TestE10CreateTestEv
FN:457,457,_ZN7testing8internal15TestFactoryImplI30QueueTest_EmptyOnCreation_TestE10CreateTestEv
FN:457,457,_ZN7testing8internal15TestFactoryImplI30QueueTest_FrontBackAccess_TestE10CreateTestEv
FN:457,457,_ZN7testing8internal15TestFactoryImplI30StackTest_NewStackIsEmpty_TestE10CreateTestEv
FN:457,457,_ZN7testing8internal15TestFactoryImplI30StackTest_PushPopSequence_TestE10CreateTestEv
FN:457,457,_ZN7testing8internal15TestFactoryImplI30StackTest_RepeatedPushPop_TestE10CreateTestEv
FN:457,457,_ZN7testing8internal15TestFactoryImplI31AVLTreeTest_RemoveLeafNode_TestE10CreateTestEv
FN:457,457,_ZN7testing8internal15TestFactoryImplI31HashMapTest_OverwriteValue_TestE10CreateTestEv
FN:457,457,_ZN7testing8internal15TestFactoryImplI31HashMapTest_ThrowsWhenFull_TestE10CreateTestEv
FN:457,457,_ZN7testing8internal15TestFactoryImplI31LinkedListTest_SizeCorrect_TestE10CreateTestEv
FN:457,457,_ZN7testing8internal15TestFactoryImplI31StackTest_PopDecreasesSize_TestE10CreateTestEv
FN:457,457,_ZN7testing8internal15TestFactoryImplI31StackTest_PopThrowsOnEmpty_TestE10CreateTestEv
FN:457,457,_ZN7testing8internal15TestFactoryImplI31StackTest_TopThrowsOnEmpty_TestE10CreateTestEv
FN:457,457,_ZN7testing8internal15TestFactoryImplI32ForwardListTest_InsertAfter_TestE10CreateTestEv
FN:457,457,_ZN7testing8internal15TestFactoryImplI32ForwardListTest_RemoveAfter_TestE10CreateTestEv
FN:457,457,_ZN7testing8internal15TestFactoryImplI32ForwardListTest_RemoveValue_TestE10CreateTestEv
FN:457,457,_ZN7testing8internal15TestFactoryImplI32HashMapTest_CopyConstructor_TestE10CreateTestEv
FN:457,457,_ZN7testing8internal15TestFactoryImplI32HashMapTest_EmptyOnCreation_TestE10CreateTestEv
FN:457,457,_ZN7testing8internal15TestFactoryImplI32HashMapTest_RehashTriggered_TestE10CreateTestEv
FN:457,457,_ZN7testing8internal15TestFactoryImplI32QueueTest_ClearEmptiesQueue_TestE10CreateTestEv
FN:457,457,_ZN7testing8internal15TestFactoryImplI32StackTest_ClearEmptiesStack_TestE10CreateTestEv
FN:457,457,_ZN7testing8internal15TestFactoryImplI32StackTest_PushIncreasesSize_TestE10CreateTestEv
FN:457,457,_ZN7testing8internal15TestFactoryImplI33ArrayTest_AssignmentOperator_TestE10CreateTestEv
FN:457,457,_ZN7testing8internal15TestFactoryImplI33ArrayTest_DefaultConstructor_TestE10CreateTestEv
FN:457,457,_ZN7testing8internal15TestFactoryImplI33ForwardListTest_InsertBefore_TestE10CreateTestEv
FN:457,457,_ZN7testing8internal15TestFactoryImplI33ForwardListTest_RemoveBefore_TestE10CreateTestEv
FN:457,457,_ZN7testing8internal15TestFactoryImplI33HashMapTest_RemoveDeletesKey_TestE10CreateTestEv
FN:457,457,_ZN7testing8internal15TestFactoryImplI33LinkedListTest_PopBackNormal_TestE10CreateTestEv
FN:457,457,_ZN7testing8internal15TestFactoryImplI33StackTest_EmptyReflectsState_TestE10CreateTestEv
FN:457,457,_ZN7testing8internal15TestFactoryImplI34ForwardListTest_PopBackThrows_TestE10CreateTestEv
FN:457,457,_ZN7testing8internal15TestFactoryImplI34HashMapTest_HandlesCollisions_TestE10CreateTestEv
FN:457,457,_ZN7testing8internal15TestFactoryImplI34HashMapTest_RemoveAndReinsert_TestE10CreateTestEv
FN:457,457,_ZN7testing8internal15TestFactoryImplI34LinkedListTest_PopFrontNormal_TestE10CreateTestEv
FN:457,457,_ZN7testing8internal15TestFactoryImplI35DoubleHashingSetTest_RemoveInt_TestE10CreateTestEv
FN:457,457,_ZN7testing8internal15TestFactoryImplI35DoubleHashingSetTest_ResizeInt_TestE10CreateTestEv
FN:457,457,_ZN7testing8internal15TestFactoryImplI35ForwardListTest_PopFrontThrows_TestE10CreateTestEv
FN:457,457,_ZN7testing8internal15TestFactoryImplI35HashMapTest_AssignmentOperator_TestE10CreateTestEv
FN:457,457,_ZN7testing8internal15TestFactoryImplI35HashMapTest_InsertAddsElements_TestE10CreateTestEv
FN:457,457,_ZN7testing8internal15TestFactoryImplI35HashMapTest_InsertUpdatesValue_TestE10CreateTestEv
FN:457,457,_ZN7testing8internal15TestFactoryImplI35HashMapTest_SizeAndIsEmptyWork_TestE10CreateTestEv
FN:457,457,_ZN7testing8internal15TestFactoryImplI35LinkedListTest_EmptyOnCreation_TestE10CreateTestEv
FN:457,457,_ZN7testing8internal15TestFactoryImplI35LinkedListTest_FrontBackAccess_TestE10CreateTestEv
FN:457,457,_ZN7testing8internal15TestFactoryImplI35LinkedListTest_RemoveValueHead_TestE10CreateTestEv
FN:457,457,_ZN7testing8internal15TestFactoryImplI35QueueTest_DequeueDecreasesSize_TestE10CreateTestEv
FN:457,457,_ZN7testing8internal15TestFactoryImplI35QueueTest_DequeueThrowsOnEmpty_TestE10CreateTestEv
FN:457,457,_ZN7testing8internal15TestFactoryImplI35QueueTest_EnqueueIncreasesSize_TestE10CreateTestEv
FN:457,457,_ZN7testing8internal15TestFactoryImplI35StackTest_SizeUpdatesCorrectly_TestE10CreateTestEv
FN:457,457,_ZN7testing8internal15TestFactoryImplI35StackTest_TopReturnsLastPushed_TestE10CreateTestEv
FN:457,457,_ZN7testing8internal15TestFactoryImplI36AVLTreeTest_ContainsOnEmptyTree_TestE10CreateTestEv
FN:457,457,_ZN7testing8internal15TestFactoryImplI36AVLTreeTest_InsertSingleElement_TestE10CreateTestEv
FN:457,457,_ZN7testing8internal15TestFactoryImplI36ForwardListTest_RemoveValueHead_TestE10CreateTestEv
FN:457,457,_ZN7testing8internal15TestFactoryImplI36HashMapTest_GetThrowsIfNotFound_TestE10CreateTestEv
FN:457,457,_ZN7testing8internal15TestFactoryImplI36LinkedListTest_InsertBeforeHead_TestE10CreateTestEv
FN:457,457,_ZN7testing8internal15TestFactoryImplI37ForwardListTest_AtReturnsCorrect_TestE10CreateTestEv
FN:457,457,_ZN7testing8internal15TestFactoryImplI37LinkedListTest_InsertAfterNormal_TestE10CreateTestEv
FN:457,457,_ZN7testing8internal15TestFactoryImplI37LinkedListTest_RemoveAfterNormal_TestE10CreateTestEv
FN:457,457,_ZN7testing8internal15TestFactoryImplI37LinkedListTest_RemoveAfterThrows_TestE10CreateTestEv
FN:457,457,_ZN7testing8internal15TestFactoryImplI37LinkedListTest_RemoveValueMiddle_TestE10CreateTestEv
FN:457,457,_ZN7testing8internal15TestFactoryImplI37QueueTest_FrontBackThrowsOnEmpty_TestE10CreateTestEv
FN:457,457,_ZN7testing8internal15TestFactoryImplI38ArrayTest_ConstructorWithCapacity_TestE10CreateTestEv
FN:457,457,_ZN7testing8internal15TestFactoryImplI38DoubleHashingSetTest_RemoveString_TestE10CreateTestEv
FN:457,457,_ZN7testing8internal15TestFactoryImplI38ForwardListTest_InsertAfterThrows_TestE10CreateTestEv
FN:457,457,_ZN7testing8internal15TestFactoryImplI38ForwardListTest_RemoveAfterThrows_TestE10CreateTestEv
FN:457,457,_ZN7testing8internal15TestFactoryImplI38LinkedListTest_AtThrowsOnBadIndex_TestE10CreateTestEv
FN:457,457,_ZN7testing8internal15TestFactoryImplI38LinkedListTest_FrontThrowsOnEmpty_TestE10CreateTestEv
FN:457,457,_ZN7testing8internal15TestFactoryImplI38LinkedListTest_InsertBeforeMiddle_TestE10CreateTestEv
FN:457,457,_ZN7testing8internal15TestFactoryImplI38LinkedListTest_RemoveBeforeNormal_TestE10CreateTestEv
FN:457,457,_ZN7testing8internal15TestFactoryImplI38LinkedListTest_RemoveBeforeThrows_TestE10CreateTestEv
FN:457,457,_ZN7testing8internal15TestFactoryImplI39AVLTreeTest_RebalanceLeftRightCase_TestE10CreateTestEv
FN:457,457,_ZN7testing8internal15TestFactoryImplI39AVLTreeTest_RebalanceRightLeftCase_TestE10CreateTestEv
FN:457,457,_ZN7testing8internal15TestFactoryImplI39AVLTreeTest_RemoveNodeWithOneChild_TestE10CreateTestEv
FN:457,457,_ZN7testing8internal15TestFactoryImplI39ForwardListTest_DefaultConstructor_TestE10CreateTestEv
FN:457,457,_ZN7testing8internal15TestFactoryImplI39ForwardListTest_InsertBeforeThrows_TestE10CreateTestEv
FN:457,457,_ZN7testing8internal15TestFactoryImplI39ForwardListTest_RemoveBeforeThrows_TestE10CreateTestEv
FN:457,457,_ZN7testing8internal15TestFactoryImplI39HashMapTest_GetReturnsCorrectValue_TestE10CreateTestEv
FN:457,457,_ZN7testing8internal15TestFactoryImplI39LinkedListTest_InitListConstructor_TestE10CreateTestEv
FN:457,457,_ZN7testing8internal15TestFactoryImplI40HashMapTest_GetNonExistentKeyThrows_TestE10CreateTestEv
FN:457,457,_ZN7testing8internal15TestFactoryImplI40LinkedListTest_PopBackThrowsOnEmpty_TestE10CreateTestEv
FN:457,457,_ZN7testing8internal15TestFactoryImplI41ArrayTest_InitializerListConstructor_TestE10CreateTestEv
FN:457,457,_ZN7testing8internal15TestFactoryImplI41ForwardListTest_PopBackSingleElement_TestE10CreateTestEv
FN:457,457,_ZN7testing8internal15TestFactoryImplI41LinkedListTest_InsertAfterOutOfRange_TestE10CreateTestEv
FN:457,457,_ZN7testing8internal15TestFactoryImplI41LinkedListTest_PopFrontThrowsOnEmpty_TestE10CreateTestEv
FN:457,457,_ZN7testing8internal15TestFactoryImplI42AVLTreeTest_RemoveNodeWithTwoChildren_TestE10CreateTestEv
FN:457,457,_ZN7testing8internal15TestFactoryImplI42ArrayTest_ConstructorWithSizeAndValue_TestE10CreateTestEv
FN:457,457,_ZN7testing8internal15TestFactoryImplI42ForwardListTest_InsertBeforeIndexZero_TestE10CreateTestEv
FN:457,457,_ZN7testing8internal15TestFactoryImplI42LinkedListTest_InsertBeforeOutOfRange_TestE10CreateTestEv
FN:457,457,_ZN7testing8internal15TestFactoryImplI43ForwardListTest_FrontBackThrowsOnEmpty_TestE10CreateTestEv
FN:457,457,_ZN7testing8internal15TestFactoryImplI44DoubleHashingSetTest_InsertDuplicateInt_TestE10CreateTestEv
FN:457,457,_ZN7testing8internal15TestFactoryImplI45DoubleHashingSetTest_HandleCollisionsInt_TestE10CreateTestEv
FN:457,457,_ZN7testing8internal15TestFactoryImplI46DoubleHashingSetTest_InsertAndContainsInt_TestE10CreateTestEv
FN:457,457,_ZN7testing8internal15TestFactoryImplI47AVLTreeTest_InsertMultipleElementsBalanced_TestE10CreateTestEv
FN:457,457,_ZN7testing8internal15TestFactoryImplI47DoubleHashingSetTest_RemoveAndReuseSlotInt_TestE10CreateTestEv
FN:457,457,_ZN7testing8internal15TestFactoryImplI47ForwardListTest_InitializerListConstructor_TestE10CreateTestEv
FN:457,457,_ZN7testing8internal15TestFactoryImplI49DoubleHashingSetTest_InsertAndContainsString_TestE10CreateTestEv
FN:478,479,_ZN7testing8internal12CodeLocationC2ERKNSt7__cxx1112basic_stringIcSt11char_traitsIcESaIcEEEi
FN:491,494,_ZN7testing8internal19GetNotDefaultOrNullEPFvvES2_
FN:506,525,_ZN7testing8internal16SuiteApiResolverINS_4TestEE19GetSetUpCaseOrSuiteEPKci
FN:527,546,_ZN7testing8internal16SuiteApiResolverINS_4TestEE22GetTearDownCaseOrSuiteEPKci
FN:843,843,_ZN7testing8internal14TrueWithStringC2Ev
FN:846,846,_ZNK7testing8internal14TrueWithStringcvbEv
FNDA:0,_ZN7testing8internal15TestFactoryBaseD0Ev
FNDA:262,_ZN7testing8internal15TestFactoryBaseD2Ev
FNDA:262,_ZN7testing8internal15TestFactoryBaseC2Ev
FNDA:2,_ZN7testing8internal15TestFactoryImplI22ArrayTest_PopBack_TestE10CreateTestEv
FNDA:2,_ZN7testing8internal15TestFactoryImplI23ArrayTest_AtMethod_TestE10CreateTestEv
FNDA:2,_ZN7testing8internal15TestFactoryImplI23ArrayTest_FindTest_TestE10CreateTestEv
FNDA:2,_ZN7testing8internal15TestFactoryImplI23ArrayTest_PushBack_TestE10CreateTestEv
FNDA:2,_ZN7testing8internal15TestFactoryImplI24ArrayTest_EraseTest_TestE10CreateTestEv
FNDA:2,_ZN7testing8internal15TestFactoryImplI24ArrayTest_FrontBack_TestE10CreateTestEv
FNDA:2,_ZN7testing8internal15TestFactoryImplI24QueueTest_FindWorks_TestE10CreateTestEv
FNDA:2,_ZN7testing8internal15TestFactoryImplI24QueueTest_SizeWorks_TestE10CreateTestEv
FNDA:2,_ZN7testing8internal15TestFactoryImplI25ArrayTest_InsertTest_TestE10CreateTestEv
FNDA:2,_ZN7testing8internal15TestFactoryImplI25ArrayTest_RemoveTest_TestE10CreateTestEv
FNDA:2,_ZN7testing8internal15TestFactoryImplI25HashMapTest_ClearMap_TestE10CreateTestEv
FNDA:2,_ZN7testing8internal15TestFactoryImplI25HashMapTest_Contains_TestE10CreateTestEv
FNDA:2,_ZN7testing8internal15TestFactoryImplI25QueueTest_EmptyWorks_TestE10CreateTestEv
FNDA:2,_ZN7testing8internal15TestFactoryImplI26HashMapTest_RemoveKey_TestE10CreateTestEv
FNDA:2,_ZN7testing8internal15TestFactoryImplI26QueueTest_RemoveWorks_TestE10CreateTestEv
FNDA:2,_ZN7testing8internal15TestFactoryImplI27ArrayTest_ResizeToLeft_TestE10CreateTestEv
FNDA:2,_ZN7testing8internal15TestFactoryImplI28ForwardListTest_PopBack_TestE10CreateTestEv
FNDA:2,_ZN7testing8internal15TestFactoryImplI28LinkedListTest_AtNormal_TestE10CreateTestEv
FNDA:2,_ZN7testing8internal15TestFactoryImplI28LinkedListTest_PushBack_TestE10CreateTestEv
FNDA:2,_ZN7testing8internal15TestFactoryImplI28QueueTest_PushBackWorks_TestE10CreateTestEv
FNDA:2,_ZN7testing8internal15TestFactoryImplI29ForwardListTest_AtThrows_TestE10CreateTestEv
FNDA:2,_ZN7testing8internal15TestFactoryImplI29ForwardListTest_FindTest_TestE10CreateTestEv
FNDA:2,_ZN7testing8internal15TestFactoryImplI29ForwardListTest_PopFront_TestE10CreateTestEv
FNDA:2,_ZN7testing8internal15TestFactoryImplI29ForwardListTest_PushBack_TestE10CreateTestEv
FNDA:2,_ZN7testing8internal15TestFactoryImplI29ForwardListTest_SizeTest_TestE10CreateTestEv
FNDA:2,_ZN7testing8internal15TestFactoryImplI29HashMapTest_EmptyAndSize_TestE10CreateTestEv
FNDA:2,_ZN7testing8internal15TestFactoryImplI29HashMapTest_InsertAndGet_TestE10CreateTestEv
FNDA:2,_ZN7testing8internal15TestFactoryImplI29LinkedListTest_FindWorks_TestE10CreateTestEv
FNDA:2,_ZN7testing8internal15TestFactoryImplI29LinkedListTest_PushFront_TestE10CreateTestEv
FNDA:2,_ZN7testing8internal15TestFactoryImplI29QueueTest_AtReturnsFront_TestE10CreateTestEv
FNDA:2,_ZN7testing8internal15TestFactoryImplI30ArrayTest_CopyConstructor_TestE10CreateTestEv
FNDA:2,_ZN7testing8internal15TestFactoryImplI30ForwardListTest_ClearTest_TestE10CreateTestEv
FNDA:2,_ZN7testing8internal15TestFactoryImplI30ForwardListTest_EmptyTest_TestE10CreateTestEv
FNDA:2,_ZN7testing8internal15TestFactoryImplI30ForwardListTest_FrontBack_TestE10CreateTestEv
FNDA:2,_ZN7testing8internal15TestFactoryImplI30ForwardListTest_PushFront_TestE10CreateTestEv
FNDA:2,_ZN7testing8internal15TestFactoryImplI30HashMapTest_ContainsWorks_TestE10CreateTestEv
FNDA:2,_ZN7testing8internal15TestFactoryImplI30HashMapTest_ItemsFunction_TestE10CreateTestEv
FNDA:2,_ZN7testing8internal15TestFactoryImplI30LinkedListTest_ClearWorks_TestE10CreateTestEv
FNDA:2,_ZN7testing8internal15TestFactoryImplI30QueueTest_EmptyOnCreation_TestE10CreateTestEv
FNDA:2,_ZN7testing8internal15TestFactoryImplI30QueueTest_FrontBackAccess_TestE10CreateTestEv
FNDA:2,_ZN7testing8internal15TestFactoryImplI30StackTest_NewStackIsEmpty_TestE10CreateTestEv
FNDA:2,_ZN7testing8internal15TestFactoryImplI30StackTest_PushPopSequence_TestE10CreateTestEv
FNDA:2,_ZN7testing8internal15TestFactoryImplI30StackTest_RepeatedPushPop_TestE10CreateTestEv
FNDA:2,_ZN7testing8internal15TestFactoryImplI31AVLTreeTest_RemoveLeafNode_TestE10CreateTestEv
FNDA:2,_ZN7testing8internal15TestFactoryImplI31HashMapTest_OverwriteValue_TestE10CreateTestEv
FNDA:2,_ZN7testing8internal15TestFactoryImplI31HashMapTest_ThrowsWhenFull_TestE10CreateTestEv
FNDA:2,_ZN7testing8internal15TestFactoryImplI31LinkedListTest_SizeCorrect_TestE10CreateTestEv
FNDA:2,_ZN7testing8internal15TestFactoryImplI31StackTest_PopDecreasesSize_TestE10CreateTestEv
FNDA:2,_ZN7testing8internal15TestFactoryImplI31StackTest_PopThrowsOnEmpty_TestE10CreateTestEv
FNDA:2,_ZN7testing8internal15TestFactoryImplI31StackTest_TopThrowsOnEmpty_TestE10CreateTestEv
FNDA:2,_ZN7testing8internal15TestFactoryImplI32ForwardListTest_InsertAfter_TestE10CreateTestEv
FNDA:2,_ZN7testing8internal15TestFactoryImplI32ForwardListTest_RemoveAfter_TestE10CreateTestEv
FNDA:2,_ZN7testing8internal15TestFactoryImplI32ForwardListTest_RemoveValue_TestE10CreateTestEv
FNDA:2,_ZN7testing8internal15TestFactoryImplI32HashMapTest_CopyConstructor_TestE10CreateTestEv
FNDA:2,_ZN7testing8internal15TestFactoryImplI32HashMapTest_EmptyOnCreation_TestE10CreateTestEv
FNDA:2,_ZN7testing8internal15TestFactoryImplI32HashMapTest_RehashTriggered_TestE10CreateTestEv
FNDA:2,_ZN7testing8internal15TestFactoryImplI32QueueTest_ClearEmptiesQueue_TestE10CreateTestEv
FNDA:2,_ZN7testing8internal15TestFactoryImplI32StackTest_ClearEmptiesStack_TestE10CreateTestEv
FNDA:2,_ZN7testing8internal15TestFactoryImplI32StackTest_PushIncreasesSize_TestE10CreateTestEv
FNDA:2,_ZN7testing8internal15TestFactoryImplI33ArrayTest_AssignmentOperator_TestE10CreateTestEv
FNDA:2,_ZN7testing8internal15TestFactoryImplI33ArrayTest_DefaultConstructor_TestE10CreateTestEv
FNDA:2,_ZN7testing8internal15TestFactoryImplI33ForwardListTest_InsertBefore_TestE10CreateTestEv
FNDA:2,_ZN7testing8internal15TestFactoryImplI33ForwardListTest_RemoveBefore_TestE10CreateTestEv
FNDA:2,_ZN7testing8internal15TestFactoryImplI33HashMapTest_RemoveDeletesKey_TestE10CreateTestEv
FNDA:2,_ZN7testing8internal15TestFactoryImplI33LinkedListTest_PopBackNormal_TestE10CreateTestEv
FNDA:2,_ZN7testing8internal15TestFactoryImplI33StackTest_EmptyReflectsState_TestE10CreateTestEv
FNDA:2,_ZN7testing8internal15TestFactoryImplI34ForwardListTest_PopBackThrows_TestE10CreateTestEv
FNDA:2,_ZN7testing8internal15TestFactoryImplI34HashMapTest_HandlesCollisions_TestE10CreateTestEv
FNDA:2,_ZN7testing8internal15TestFactoryImplI34HashMapTest_RemoveAndReinsert_TestE10CreateTestEv
FNDA:2,_ZN7testing8internal15TestFactoryImplI34LinkedListTest_PopFrontNormal_TestE10CreateTestEv
FNDA:2,_ZN7testing8internal15TestFactoryImplI35DoubleHashingSetTest_RemoveInt_TestE10CreateTestEv
FNDA:2,_ZN7testing8internal15TestFactoryImplI35DoubleHashingSetTest_ResizeInt_TestE10CreateTestEv
FNDA:2,_ZN7testing8internal15TestFactoryImplI35ForwardListTest_PopFrontThrows_TestE10CreateTestEv
FNDA:2,_ZN7testing8internal15TestFactoryImplI35HashMapTest_AssignmentOperator_TestE10CreateTestEv
FNDA:2,_ZN7testing8internal15TestFactoryImplI35HashMapTest_InsertAddsElements_TestE10CreateTestEv
FNDA:2,_ZN7testing8internal15TestFactoryImplI35HashMapTest_InsertUpdatesValue_TestE10CreateTestEv
FNDA:2,_ZN7testing8internal15TestFactoryImplI35HashMapTest_SizeAndIsEmptyWork_TestE10CreateTestEv
FNDA:2,_ZN7testing8internal15TestFactoryImplI35LinkedListTest_EmptyOnCreation_TestE10CreateTestEv
FNDA:2,_ZN7testing8internal15TestFactoryImplI35LinkedListTest_FrontBackAccess_TestE10CreateTestEv
FNDA:2,_ZN7testing8internal15TestFactoryImplI35LinkedListTest_RemoveValueHead_TestE10CreateTestEv
FNDA:2,_ZN7testing8internal15TestFactoryImplI35QueueTest_DequeueDecreasesSize_TestE10CreateTestEv
FNDA:2,_ZN7testing8internal15TestFactoryImplI35QueueTest_DequeueThrowsOnEmpty_TestE10CreateTestEv
FNDA:2,_ZN7testing8internal15TestFactoryImplI35QueueTest_EnqueueIncreasesSize_TestE10CreateTestEv
FNDA:2,_ZN7testing8internal15TestFactoryImplI35StackTest_SizeUpdatesCorrectly_TestE10CreateTestEv
FNDA:2,_ZN7testing8internal15TestFactoryImplI35StackTest_TopReturnsLastPushed_TestE10CreateTestEv
FNDA:2,_ZN7testing8internal15TestFactoryImplI36AVLTreeTest_ContainsOnEmptyTree_TestE10CreateTestEv
FNDA:2,_ZN7testing8internal15TestFactoryImplI36AVLTreeTest_InsertSingleElement_TestE10CreateTestEv
FNDA:2,_ZN7testing8internal15TestFactoryImplI36ForwardListTest_RemoveValueHead_TestE10CreateTestEv
FNDA:2,_ZN7testing8internal15TestFactoryImplI36HashMapTest_GetThrowsIfNotFound_TestE10CreateTestEv
FNDA:2,_ZN7testing8internal15TestFactoryImplI36LinkedListTest_InsertBeforeHead_TestE10CreateTestEv
FNDA:2,_ZN7testing8internal15TestFactoryImplI37ForwardListTest_AtReturnsCorrect_TestE10CreateTestEv
FNDA:2,_ZN7testing8internal15TestFactoryImplI37LinkedListTest_InsertAfterNormal_TestE10CreateTestEv
FNDA:2,_ZN7testing8internal15TestFactoryImplI37LinkedListTest_RemoveAfterNormal_TestE10CreateTestEv
FNDA:2,_ZN7testing8internal15TestFactoryImplI37LinkedListTest_RemoveAfterThrows_TestE10CreateTestEv
FNDA:2,_ZN7testing8internal15TestFactoryImplI37LinkedListTest_RemoveValueMiddle_TestE10CreateTestEv
FNDA:2,_ZN7testing8internal15TestFactoryImplI37QueueTest_FrontBackThrowsOnEmpty_TestE10CreateTestEv
FNDA:2,_ZN7testing8internal15TestFactoryImplI38ArrayTest_ConstructorWithCapacity_TestE10CreateTestEv
FNDA:2,_ZN7testing8internal15TestFactoryImplI38DoubleHashingSetTest_RemoveString_TestE10CreateTestEv
FNDA:2,_ZN7testing8internal15TestFactoryImplI38ForwardListTest_InsertAfterThrows_TestE10CreateTestEv
FNDA:2,_ZN7testing8internal15TestFactoryImplI38ForwardListTest_RemoveAfterThrows_TestE10CreateTestEv
FNDA:2,_ZN7testing8internal15TestFactoryImplI38LinkedListTest_AtThrowsOnBadIndex_TestE10CreateTestEv
FNDA:2,_ZN7testing8internal15TestFactoryImplI38LinkedListTest_FrontThrowsOnEmpty_TestE10CreateTestEv
FNDA:2,_ZN7testing8internal15TestFactoryImplI38LinkedListTest_InsertBeforeMiddle_TestE10CreateTestEv
FNDA:2,_ZN7testing8internal15TestFactoryImplI38LinkedListTest_RemoveBeforeNormal_TestE10CreateTestEv
FNDA:2,_ZN7testing8internal15TestFactoryImplI38LinkedListTest_RemoveBeforeThrows_TestE10CreateTestEv
FNDA:2,_ZN7testing8internal15TestFactoryImplI39AVLTreeTest_RebalanceLeftRightCase_TestE10CreateTestEv
FNDA:2,_ZN7testing8internal15TestFactoryImplI39AVLTreeTest_RebalanceRightLeftCase_TestE10CreateTestEv
FNDA:2,_ZN7testing8internal15TestFactoryImplI39AVLTreeTest_RemoveNodeWithOneChild_TestE10CreateTestEv
FNDA:2,_ZN7testing8internal15TestFactoryImplI39ForwardListTest_DefaultConstructor_TestE10CreateTestEv
FNDA:2,_ZN7testing8internal15TestFactoryImplI39ForwardListTest_InsertBeforeThrows_TestE10CreateTestEv
FNDA:2,_ZN7testing8internal15TestFactoryImplI39ForwardListTest_RemoveBeforeThrows_TestE10CreateTestEv
FNDA:2,_ZN7testing8internal15TestFactoryImplI39HashMapTest_GetReturnsCorrectValue_TestE10CreateTestEv
FNDA:2,_ZN7testing8internal15TestFactoryImplI39LinkedListTest_InitListConstructor_TestE10CreateTestEv
FNDA:2,_ZN7testing8internal15TestFactoryImplI40HashMapTest_GetNonExistentKeyThrows_TestE10CreateTestEv
FNDA:2,_ZN7testing8internal15TestFactoryImplI40LinkedListTest_PopBackThrowsOnEmpty_TestE10CreateTestEv
FNDA:2,_ZN7testing8internal15TestFactoryImplI41ArrayTest_InitializerListConstructor_TestE10CreateTestEv
FNDA:2,_ZN7testing8internal15TestFactoryImplI41ForwardListTest_PopBackSingleElement_TestE10CreateTestEv
FNDA:2,_ZN7testing8internal15TestFactoryImplI41LinkedListTest_InsertAfterOutOfRange_TestE10CreateTestEv
FNDA:2,_ZN7testing8internal15TestFactoryImplI41LinkedListTest_PopFrontThrowsOnEmpty_TestE10CreateTestEv
FNDA:2,_ZN7testing8internal15TestFactoryImplI42AVLTreeTest_RemoveNodeWithTwoChildren_TestE10CreateTestEv
FNDA:2,_ZN7testing8internal15TestFactoryImplI42ArrayTest_ConstructorWithSizeAndValue_TestE10CreateTestEv
FNDA:2,_ZN7testing8internal15TestFactoryImplI42ForwardListTest_InsertBeforeIndexZero_TestE10CreateTestEv
FNDA:2,_ZN7testing8internal15TestFactoryImplI42LinkedListTest_InsertBeforeOutOfRange_TestE10CreateTestEv
FNDA:2,_ZN7testing8internal15TestFactoryImplI43ForwardListTest_FrontBackThrowsOnEmpty_TestE10CreateTestEv
FNDA:2,_ZN7testing8internal15TestFactoryImplI44DoubleHashingSetTest_InsertDuplicateInt_TestE10CreateTestEv
FNDA:2,_ZN7testing8internal15TestFactoryImplI45DoubleHashingSetTest_HandleCollisionsInt_TestE10CreateTestEv
FNDA:2,_ZN7testing8internal15TestFactoryImplI46DoubleHashingSetTest_InsertAndContainsInt_TestE10CreateTestEv
FNDA:2,_ZN7testing8internal15TestFactoryImplI47AVLTreeTest_InsertMultipleElementsBalanced_TestE10CreateTestEv
FNDA:2,_ZN7testing8internal15TestFactoryImplI47DoubleHashingSetTest_RemoveAndReuseSlotInt_TestE10CreateTestEv
FNDA:2,_ZN7testing8internal15TestFactoryImplI47ForwardListTest_InitializerListConstructor_TestE10CreateTestEv
FNDA:2,_ZN7testing8internal15TestFactoryImplI49DoubleHashingSetTest_InsertAndContainsString_TestE10CreateTestEv
FNDA:262,_ZN7testing8internal12CodeLocationC2ERKNSt7__cxx1112basic_stringIcSt11char_traitsIcESaIcEEEi
FNDA:1048,_ZN7testing8internal19GetNotDefaultOrNullEPFvvES2_
FNDA:262,_ZN7testing8internal16SuiteApiResolverINS_4TestEE19GetSetUpCaseOrSuiteEPKci
FNDA:262,_ZN7testing8internal16SuiteApiResolverINS_4TestEE22GetTearDownCaseOrSuiteEPKci
FNDA:78,_ZN7testing8internal14TrueWithStringC2Ev
FNDA:78,_ZNK7testing8internal14TrueWithStringcvbEv
FNF:140
FNH:139
DA:438,262
DA:445,262
DA:457,262
DA:478,262
DA:479,262
DA:491,1048
DA:493,1048
DA:506,262
DA:510,262
DA:512,262
DA:514,262
DA:517,0
DA:519,262
DA:527,262
DA:531,262
DA:533,262
DA:535,262
DA:538,0
DA:540,262
DA:843,78
DA:846,78
LF:21
LH:19
end_of_record
TN:
SF:/usr/include/gtest/internal/gtest-port.h
FN:1042,1042,_ZN7testing8internal8GTestLog9GetStreamEv
FNDA:0,_ZN7testing8internal8GTestLog9GetStreamEv
FNF:1
FNH:0
DA:1042,0
LF:1
LH:0
end_of_record
TN:
SF:/usr/include/gtest/internal/gtest-type-util.h
FN:61,87,_ZN7testing8internal31CanonicalizeForStdLibVersioningENSt7__cxx1112basic_stringIcSt11char_traitsIcESaIcEEE
FN:91,121,_ZN7testing8internal11GetTypeNameB5cxx11ERKSt9type_info
FNDA:0,_ZN7testing8internal31CanonicalizeForStdLibVersioningENSt7__cxx1112basic_stringIcSt11char_traitsIcESaIcEEE
FNDA:0,_ZN7testing8internal11GetTypeNameB5cxx11ERKSt9type_info
FNF:2
FNH:0
DA:61,0
DA:63,0
DA:64,0
DA:65,0
DA:67,0
DA:75,0
DA:78,0
DA:79,0
DA:80,0
DA:83,0
DA:84,0
DA:86,0
DA:91,0
DA:92,0
DA:94,0
DA:100,0
DA:101,0
DA:102,0
DA:103,0
DA:121,0
LF:20
LH:0
end_of_record
TN:
SF:/usr/include/x86_64-linux-gnu/c++/13/bits/c++config.h
FN:540,551,_ZSt23__is_constant_evaluatedv
FNDA:356,_ZSt23__is_constant_evaluatedv
FNF:1
FNH:1
DA:540,356
DA:547,356
LF:2
LH:2
end_of_record
